
pickplazstm.elf:     file format elf32-littlearm

Sections:
Idx Name          Size      VMA       LMA       File off  Algn
  0 .isr_vector   00000198  08000000  08000000  00010000  2**0
                  CONTENTS, ALLOC, LOAD, READONLY, DATA
  1 .text         00004790  08000198  08000198  00010198  2**3
                  CONTENTS, ALLOC, LOAD, READONLY, CODE
  2 .rodata       000000c0  08004928  08004928  00014928  2**2
                  CONTENTS, ALLOC, LOAD, READONLY, DATA
  3 .ARM.extab    00000000  080049e8  080049e8  00020094  2**0
                  CONTENTS
  4 .ARM          00000008  080049e8  080049e8  000149e8  2**2
                  CONTENTS, ALLOC, LOAD, READONLY, DATA
  5 .preinit_array 00000000  080049f0  080049f0  00020094  2**0
                  CONTENTS, ALLOC, LOAD, DATA
  6 .init_array   00000010  080049f0  080049f0  000149f0  2**2
                  CONTENTS, ALLOC, LOAD, DATA
  7 .fini_array   00000004  08004a00  08004a00  00014a00  2**2
                  CONTENTS, ALLOC, LOAD, DATA
  8 .data         00000094  20000000  08004a04  00020000  2**2
                  CONTENTS, ALLOC, LOAD, DATA
  9 .bss          00000f6c  20000094  08004a98  00020094  2**2
                  ALLOC
 10 ._user_heap_stack 00000600  20001000  08004a98  00021000  2**0
                  ALLOC
 11 .ARM.attributes 00000030  00000000  00000000  00020094  2**0
                  CONTENTS, READONLY
 12 .comment      0000007b  00000000  00000000  000200c4  2**0
                  CONTENTS, READONLY
 13 .debug_frame  000003e0  00000000  00000000  00020140  2**2
                  CONTENTS, READONLY, DEBUGGING

Disassembly of section .text:

08000198 <__do_global_dtors_aux>:
 8000198:	b510      	push	{r4, lr}
 800019a:	4c05      	ldr	r4, [pc, #20]	; (80001b0 <__do_global_dtors_aux+0x18>)
 800019c:	7823      	ldrb	r3, [r4, #0]
 800019e:	b933      	cbnz	r3, 80001ae <__do_global_dtors_aux+0x16>
 80001a0:	4b04      	ldr	r3, [pc, #16]	; (80001b4 <__do_global_dtors_aux+0x1c>)
 80001a2:	b113      	cbz	r3, 80001aa <__do_global_dtors_aux+0x12>
 80001a4:	4804      	ldr	r0, [pc, #16]	; (80001b8 <__do_global_dtors_aux+0x20>)
 80001a6:	f3af 8000 	nop.w
 80001aa:	2301      	movs	r3, #1
 80001ac:	7023      	strb	r3, [r4, #0]
 80001ae:	bd10      	pop	{r4, pc}
 80001b0:	20000094 	.word	0x20000094
 80001b4:	00000000 	.word	0x00000000
 80001b8:	08004910 	.word	0x08004910

080001bc <frame_dummy>:
 80001bc:	b508      	push	{r3, lr}
 80001be:	4b03      	ldr	r3, [pc, #12]	; (80001cc <frame_dummy+0x10>)
 80001c0:	b11b      	cbz	r3, 80001ca <frame_dummy+0xe>
 80001c2:	4903      	ldr	r1, [pc, #12]	; (80001d0 <frame_dummy+0x14>)
 80001c4:	4803      	ldr	r0, [pc, #12]	; (80001d4 <frame_dummy+0x18>)
 80001c6:	f3af 8000 	nop.w
 80001ca:	bd08      	pop	{r3, pc}
 80001cc:	00000000 	.word	0x00000000
 80001d0:	20000098 	.word	0x20000098
 80001d4:	08004910 	.word	0x08004910

080001d8 <strlen>:
 80001d8:	4603      	mov	r3, r0
 80001da:	f813 2b01 	ldrb.w	r2, [r3], #1
 80001de:	2a00      	cmp	r2, #0
 80001e0:	d1fb      	bne.n	80001da <strlen+0x2>
 80001e2:	1a18      	subs	r0, r3, r0
 80001e4:	3801      	subs	r0, #1
 80001e6:	4770      	bx	lr

080001e8 <__aeabi_drsub>:
 80001e8:	f081 4100 	eor.w	r1, r1, #2147483648	; 0x80000000
 80001ec:	e002      	b.n	80001f4 <__adddf3>
 80001ee:	bf00      	nop

080001f0 <__aeabi_dsub>:
 80001f0:	f083 4300 	eor.w	r3, r3, #2147483648	; 0x80000000

080001f4 <__adddf3>:
 80001f4:	b530      	push	{r4, r5, lr}
 80001f6:	ea4f 0441 	mov.w	r4, r1, lsl #1
 80001fa:	ea4f 0543 	mov.w	r5, r3, lsl #1
 80001fe:	ea94 0f05 	teq	r4, r5
 8000202:	bf08      	it	eq
 8000204:	ea90 0f02 	teqeq	r0, r2
 8000208:	bf1f      	itttt	ne
 800020a:	ea54 0c00 	orrsne.w	ip, r4, r0
 800020e:	ea55 0c02 	orrsne.w	ip, r5, r2
 8000212:	ea7f 5c64 	mvnsne.w	ip, r4, asr #21
 8000216:	ea7f 5c65 	mvnsne.w	ip, r5, asr #21
 800021a:	f000 80e2 	beq.w	80003e2 <__adddf3+0x1ee>
 800021e:	ea4f 5454 	mov.w	r4, r4, lsr #21
 8000222:	ebd4 5555 	rsbs	r5, r4, r5, lsr #21
 8000226:	bfb8      	it	lt
 8000228:	426d      	neglt	r5, r5
 800022a:	dd0c      	ble.n	8000246 <__adddf3+0x52>
 800022c:	442c      	add	r4, r5
 800022e:	ea80 0202 	eor.w	r2, r0, r2
 8000232:	ea81 0303 	eor.w	r3, r1, r3
 8000236:	ea82 0000 	eor.w	r0, r2, r0
 800023a:	ea83 0101 	eor.w	r1, r3, r1
 800023e:	ea80 0202 	eor.w	r2, r0, r2
 8000242:	ea81 0303 	eor.w	r3, r1, r3
 8000246:	2d36      	cmp	r5, #54	; 0x36
 8000248:	bf88      	it	hi
 800024a:	bd30      	pophi	{r4, r5, pc}
 800024c:	f011 4f00 	tst.w	r1, #2147483648	; 0x80000000
 8000250:	ea4f 3101 	mov.w	r1, r1, lsl #12
 8000254:	f44f 1c80 	mov.w	ip, #1048576	; 0x100000
 8000258:	ea4c 3111 	orr.w	r1, ip, r1, lsr #12
 800025c:	d002      	beq.n	8000264 <__adddf3+0x70>
 800025e:	4240      	negs	r0, r0
 8000260:	eb61 0141 	sbc.w	r1, r1, r1, lsl #1
 8000264:	f013 4f00 	tst.w	r3, #2147483648	; 0x80000000
 8000268:	ea4f 3303 	mov.w	r3, r3, lsl #12
 800026c:	ea4c 3313 	orr.w	r3, ip, r3, lsr #12
 8000270:	d002      	beq.n	8000278 <__adddf3+0x84>
 8000272:	4252      	negs	r2, r2
 8000274:	eb63 0343 	sbc.w	r3, r3, r3, lsl #1
 8000278:	ea94 0f05 	teq	r4, r5
 800027c:	f000 80a7 	beq.w	80003ce <__adddf3+0x1da>
 8000280:	f1a4 0401 	sub.w	r4, r4, #1
 8000284:	f1d5 0e20 	rsbs	lr, r5, #32
 8000288:	db0d      	blt.n	80002a6 <__adddf3+0xb2>
 800028a:	fa02 fc0e 	lsl.w	ip, r2, lr
 800028e:	fa22 f205 	lsr.w	r2, r2, r5
 8000292:	1880      	adds	r0, r0, r2
 8000294:	f141 0100 	adc.w	r1, r1, #0
 8000298:	fa03 f20e 	lsl.w	r2, r3, lr
 800029c:	1880      	adds	r0, r0, r2
 800029e:	fa43 f305 	asr.w	r3, r3, r5
 80002a2:	4159      	adcs	r1, r3
 80002a4:	e00e      	b.n	80002c4 <__adddf3+0xd0>
 80002a6:	f1a5 0520 	sub.w	r5, r5, #32
 80002aa:	f10e 0e20 	add.w	lr, lr, #32
 80002ae:	2a01      	cmp	r2, #1
 80002b0:	fa03 fc0e 	lsl.w	ip, r3, lr
 80002b4:	bf28      	it	cs
 80002b6:	f04c 0c02 	orrcs.w	ip, ip, #2
 80002ba:	fa43 f305 	asr.w	r3, r3, r5
 80002be:	18c0      	adds	r0, r0, r3
 80002c0:	eb51 71e3 	adcs.w	r1, r1, r3, asr #31
 80002c4:	f001 4500 	and.w	r5, r1, #2147483648	; 0x80000000
 80002c8:	d507      	bpl.n	80002da <__adddf3+0xe6>
 80002ca:	f04f 0e00 	mov.w	lr, #0
 80002ce:	f1dc 0c00 	rsbs	ip, ip, #0
 80002d2:	eb7e 0000 	sbcs.w	r0, lr, r0
 80002d6:	eb6e 0101 	sbc.w	r1, lr, r1
 80002da:	f5b1 1f80 	cmp.w	r1, #1048576	; 0x100000
 80002de:	d31b      	bcc.n	8000318 <__adddf3+0x124>
 80002e0:	f5b1 1f00 	cmp.w	r1, #2097152	; 0x200000
 80002e4:	d30c      	bcc.n	8000300 <__adddf3+0x10c>
 80002e6:	0849      	lsrs	r1, r1, #1
 80002e8:	ea5f 0030 	movs.w	r0, r0, rrx
 80002ec:	ea4f 0c3c 	mov.w	ip, ip, rrx
 80002f0:	f104 0401 	add.w	r4, r4, #1
 80002f4:	ea4f 5244 	mov.w	r2, r4, lsl #21
 80002f8:	f512 0f80 	cmn.w	r2, #4194304	; 0x400000
 80002fc:	f080 809a 	bcs.w	8000434 <__adddf3+0x240>
 8000300:	f1bc 4f00 	cmp.w	ip, #2147483648	; 0x80000000
 8000304:	bf08      	it	eq
 8000306:	ea5f 0c50 	movseq.w	ip, r0, lsr #1
 800030a:	f150 0000 	adcs.w	r0, r0, #0
 800030e:	eb41 5104 	adc.w	r1, r1, r4, lsl #20
 8000312:	ea41 0105 	orr.w	r1, r1, r5
 8000316:	bd30      	pop	{r4, r5, pc}
 8000318:	ea5f 0c4c 	movs.w	ip, ip, lsl #1
 800031c:	4140      	adcs	r0, r0
 800031e:	eb41 0101 	adc.w	r1, r1, r1
 8000322:	f411 1f80 	tst.w	r1, #1048576	; 0x100000
 8000326:	f1a4 0401 	sub.w	r4, r4, #1
 800032a:	d1e9      	bne.n	8000300 <__adddf3+0x10c>
 800032c:	f091 0f00 	teq	r1, #0
 8000330:	bf04      	itt	eq
 8000332:	4601      	moveq	r1, r0
 8000334:	2000      	moveq	r0, #0
 8000336:	fab1 f381 	clz	r3, r1
 800033a:	bf08      	it	eq
 800033c:	3320      	addeq	r3, #32
 800033e:	f1a3 030b 	sub.w	r3, r3, #11
 8000342:	f1b3 0220 	subs.w	r2, r3, #32
 8000346:	da0c      	bge.n	8000362 <__adddf3+0x16e>
 8000348:	320c      	adds	r2, #12
 800034a:	dd08      	ble.n	800035e <__adddf3+0x16a>
 800034c:	f102 0c14 	add.w	ip, r2, #20
 8000350:	f1c2 020c 	rsb	r2, r2, #12
 8000354:	fa01 f00c 	lsl.w	r0, r1, ip
 8000358:	fa21 f102 	lsr.w	r1, r1, r2
 800035c:	e00c      	b.n	8000378 <__adddf3+0x184>
 800035e:	f102 0214 	add.w	r2, r2, #20
 8000362:	bfd8      	it	le
 8000364:	f1c2 0c20 	rsble	ip, r2, #32
 8000368:	fa01 f102 	lsl.w	r1, r1, r2
 800036c:	fa20 fc0c 	lsr.w	ip, r0, ip
 8000370:	bfdc      	itt	le
 8000372:	ea41 010c 	orrle.w	r1, r1, ip
 8000376:	4090      	lslle	r0, r2
 8000378:	1ae4      	subs	r4, r4, r3
 800037a:	bfa2      	ittt	ge
 800037c:	eb01 5104 	addge.w	r1, r1, r4, lsl #20
 8000380:	4329      	orrge	r1, r5
 8000382:	bd30      	popge	{r4, r5, pc}
 8000384:	ea6f 0404 	mvn.w	r4, r4
 8000388:	3c1f      	subs	r4, #31
 800038a:	da1c      	bge.n	80003c6 <__adddf3+0x1d2>
 800038c:	340c      	adds	r4, #12
 800038e:	dc0e      	bgt.n	80003ae <__adddf3+0x1ba>
 8000390:	f104 0414 	add.w	r4, r4, #20
 8000394:	f1c4 0220 	rsb	r2, r4, #32
 8000398:	fa20 f004 	lsr.w	r0, r0, r4
 800039c:	fa01 f302 	lsl.w	r3, r1, r2
 80003a0:	ea40 0003 	orr.w	r0, r0, r3
 80003a4:	fa21 f304 	lsr.w	r3, r1, r4
 80003a8:	ea45 0103 	orr.w	r1, r5, r3
 80003ac:	bd30      	pop	{r4, r5, pc}
 80003ae:	f1c4 040c 	rsb	r4, r4, #12
 80003b2:	f1c4 0220 	rsb	r2, r4, #32
 80003b6:	fa20 f002 	lsr.w	r0, r0, r2
 80003ba:	fa01 f304 	lsl.w	r3, r1, r4
 80003be:	ea40 0003 	orr.w	r0, r0, r3
 80003c2:	4629      	mov	r1, r5
 80003c4:	bd30      	pop	{r4, r5, pc}
 80003c6:	fa21 f004 	lsr.w	r0, r1, r4
 80003ca:	4629      	mov	r1, r5
 80003cc:	bd30      	pop	{r4, r5, pc}
 80003ce:	f094 0f00 	teq	r4, #0
 80003d2:	f483 1380 	eor.w	r3, r3, #1048576	; 0x100000
 80003d6:	bf06      	itte	eq
 80003d8:	f481 1180 	eoreq.w	r1, r1, #1048576	; 0x100000
 80003dc:	3401      	addeq	r4, #1
 80003de:	3d01      	subne	r5, #1
 80003e0:	e74e      	b.n	8000280 <__adddf3+0x8c>
 80003e2:	ea7f 5c64 	mvns.w	ip, r4, asr #21
 80003e6:	bf18      	it	ne
 80003e8:	ea7f 5c65 	mvnsne.w	ip, r5, asr #21
 80003ec:	d029      	beq.n	8000442 <__adddf3+0x24e>
 80003ee:	ea94 0f05 	teq	r4, r5
 80003f2:	bf08      	it	eq
 80003f4:	ea90 0f02 	teqeq	r0, r2
 80003f8:	d005      	beq.n	8000406 <__adddf3+0x212>
 80003fa:	ea54 0c00 	orrs.w	ip, r4, r0
 80003fe:	bf04      	itt	eq
 8000400:	4619      	moveq	r1, r3
 8000402:	4610      	moveq	r0, r2
 8000404:	bd30      	pop	{r4, r5, pc}
 8000406:	ea91 0f03 	teq	r1, r3
 800040a:	bf1e      	ittt	ne
 800040c:	2100      	movne	r1, #0
 800040e:	2000      	movne	r0, #0
 8000410:	bd30      	popne	{r4, r5, pc}
 8000412:	ea5f 5c54 	movs.w	ip, r4, lsr #21
 8000416:	d105      	bne.n	8000424 <__adddf3+0x230>
 8000418:	0040      	lsls	r0, r0, #1
 800041a:	4149      	adcs	r1, r1
 800041c:	bf28      	it	cs
 800041e:	f041 4100 	orrcs.w	r1, r1, #2147483648	; 0x80000000
 8000422:	bd30      	pop	{r4, r5, pc}
 8000424:	f514 0480 	adds.w	r4, r4, #4194304	; 0x400000
 8000428:	bf3c      	itt	cc
 800042a:	f501 1180 	addcc.w	r1, r1, #1048576	; 0x100000
 800042e:	bd30      	popcc	{r4, r5, pc}
 8000430:	f001 4500 	and.w	r5, r1, #2147483648	; 0x80000000
 8000434:	f045 41fe 	orr.w	r1, r5, #2130706432	; 0x7f000000
 8000438:	f441 0170 	orr.w	r1, r1, #15728640	; 0xf00000
 800043c:	f04f 0000 	mov.w	r0, #0
 8000440:	bd30      	pop	{r4, r5, pc}
 8000442:	ea7f 5c64 	mvns.w	ip, r4, asr #21
 8000446:	bf1a      	itte	ne
 8000448:	4619      	movne	r1, r3
 800044a:	4610      	movne	r0, r2
 800044c:	ea7f 5c65 	mvnseq.w	ip, r5, asr #21
 8000450:	bf1c      	itt	ne
 8000452:	460b      	movne	r3, r1
 8000454:	4602      	movne	r2, r0
 8000456:	ea50 3401 	orrs.w	r4, r0, r1, lsl #12
 800045a:	bf06      	itte	eq
 800045c:	ea52 3503 	orrseq.w	r5, r2, r3, lsl #12
 8000460:	ea91 0f03 	teqeq	r1, r3
 8000464:	f441 2100 	orrne.w	r1, r1, #524288	; 0x80000
 8000468:	bd30      	pop	{r4, r5, pc}
 800046a:	bf00      	nop

0800046c <__aeabi_ui2d>:
 800046c:	f090 0f00 	teq	r0, #0
 8000470:	bf04      	itt	eq
 8000472:	2100      	moveq	r1, #0
 8000474:	4770      	bxeq	lr
 8000476:	b530      	push	{r4, r5, lr}
 8000478:	f44f 6480 	mov.w	r4, #1024	; 0x400
 800047c:	f104 0432 	add.w	r4, r4, #50	; 0x32
 8000480:	f04f 0500 	mov.w	r5, #0
 8000484:	f04f 0100 	mov.w	r1, #0
 8000488:	e750      	b.n	800032c <__adddf3+0x138>
 800048a:	bf00      	nop

0800048c <__aeabi_i2d>:
 800048c:	f090 0f00 	teq	r0, #0
 8000490:	bf04      	itt	eq
 8000492:	2100      	moveq	r1, #0
 8000494:	4770      	bxeq	lr
 8000496:	b530      	push	{r4, r5, lr}
 8000498:	f44f 6480 	mov.w	r4, #1024	; 0x400
 800049c:	f104 0432 	add.w	r4, r4, #50	; 0x32
 80004a0:	f010 4500 	ands.w	r5, r0, #2147483648	; 0x80000000
 80004a4:	bf48      	it	mi
 80004a6:	4240      	negmi	r0, r0
 80004a8:	f04f 0100 	mov.w	r1, #0
 80004ac:	e73e      	b.n	800032c <__adddf3+0x138>
 80004ae:	bf00      	nop

080004b0 <__aeabi_f2d>:
 80004b0:	0042      	lsls	r2, r0, #1
 80004b2:	ea4f 01e2 	mov.w	r1, r2, asr #3
 80004b6:	ea4f 0131 	mov.w	r1, r1, rrx
 80004ba:	ea4f 7002 	mov.w	r0, r2, lsl #28
 80004be:	bf1f      	itttt	ne
 80004c0:	f012 437f 	andsne.w	r3, r2, #4278190080	; 0xff000000
 80004c4:	f093 4f7f 	teqne	r3, #4278190080	; 0xff000000
 80004c8:	f081 5160 	eorne.w	r1, r1, #939524096	; 0x38000000
 80004cc:	4770      	bxne	lr
 80004ce:	f032 427f 	bics.w	r2, r2, #4278190080	; 0xff000000
 80004d2:	bf08      	it	eq
 80004d4:	4770      	bxeq	lr
 80004d6:	f093 4f7f 	teq	r3, #4278190080	; 0xff000000
 80004da:	bf04      	itt	eq
 80004dc:	f441 2100 	orreq.w	r1, r1, #524288	; 0x80000
 80004e0:	4770      	bxeq	lr
 80004e2:	b530      	push	{r4, r5, lr}
 80004e4:	f44f 7460 	mov.w	r4, #896	; 0x380
 80004e8:	f001 4500 	and.w	r5, r1, #2147483648	; 0x80000000
 80004ec:	f021 4100 	bic.w	r1, r1, #2147483648	; 0x80000000
 80004f0:	e71c      	b.n	800032c <__adddf3+0x138>
 80004f2:	bf00      	nop

080004f4 <__aeabi_ul2d>:
 80004f4:	ea50 0201 	orrs.w	r2, r0, r1
 80004f8:	bf08      	it	eq
 80004fa:	4770      	bxeq	lr
 80004fc:	b530      	push	{r4, r5, lr}
 80004fe:	f04f 0500 	mov.w	r5, #0
 8000502:	e00a      	b.n	800051a <__aeabi_l2d+0x16>

08000504 <__aeabi_l2d>:
 8000504:	ea50 0201 	orrs.w	r2, r0, r1
 8000508:	bf08      	it	eq
 800050a:	4770      	bxeq	lr
 800050c:	b530      	push	{r4, r5, lr}
 800050e:	f011 4500 	ands.w	r5, r1, #2147483648	; 0x80000000
 8000512:	d502      	bpl.n	800051a <__aeabi_l2d+0x16>
 8000514:	4240      	negs	r0, r0
 8000516:	eb61 0141 	sbc.w	r1, r1, r1, lsl #1
 800051a:	f44f 6480 	mov.w	r4, #1024	; 0x400
 800051e:	f104 0432 	add.w	r4, r4, #50	; 0x32
 8000522:	ea5f 5c91 	movs.w	ip, r1, lsr #22
 8000526:	f43f aed8 	beq.w	80002da <__adddf3+0xe6>
 800052a:	f04f 0203 	mov.w	r2, #3
 800052e:	ea5f 0cdc 	movs.w	ip, ip, lsr #3
 8000532:	bf18      	it	ne
 8000534:	3203      	addne	r2, #3
 8000536:	ea5f 0cdc 	movs.w	ip, ip, lsr #3
 800053a:	bf18      	it	ne
 800053c:	3203      	addne	r2, #3
 800053e:	eb02 02dc 	add.w	r2, r2, ip, lsr #3
 8000542:	f1c2 0320 	rsb	r3, r2, #32
 8000546:	fa00 fc03 	lsl.w	ip, r0, r3
 800054a:	fa20 f002 	lsr.w	r0, r0, r2
 800054e:	fa01 fe03 	lsl.w	lr, r1, r3
 8000552:	ea40 000e 	orr.w	r0, r0, lr
 8000556:	fa21 f102 	lsr.w	r1, r1, r2
 800055a:	4414      	add	r4, r2
 800055c:	e6bd      	b.n	80002da <__adddf3+0xe6>
 800055e:	bf00      	nop

08000560 <__aeabi_dmul>:
 8000560:	b570      	push	{r4, r5, r6, lr}
 8000562:	f04f 0cff 	mov.w	ip, #255	; 0xff
 8000566:	f44c 6ce0 	orr.w	ip, ip, #1792	; 0x700
 800056a:	ea1c 5411 	ands.w	r4, ip, r1, lsr #20
 800056e:	bf1d      	ittte	ne
 8000570:	ea1c 5513 	andsne.w	r5, ip, r3, lsr #20
 8000574:	ea94 0f0c 	teqne	r4, ip
 8000578:	ea95 0f0c 	teqne	r5, ip
 800057c:	f000 f8de 	bleq	800073c <__aeabi_dmul+0x1dc>
 8000580:	442c      	add	r4, r5
 8000582:	ea81 0603 	eor.w	r6, r1, r3
 8000586:	ea21 514c 	bic.w	r1, r1, ip, lsl #21
 800058a:	ea23 534c 	bic.w	r3, r3, ip, lsl #21
 800058e:	ea50 3501 	orrs.w	r5, r0, r1, lsl #12
 8000592:	bf18      	it	ne
 8000594:	ea52 3503 	orrsne.w	r5, r2, r3, lsl #12
 8000598:	f441 1180 	orr.w	r1, r1, #1048576	; 0x100000
 800059c:	f443 1380 	orr.w	r3, r3, #1048576	; 0x100000
 80005a0:	d038      	beq.n	8000614 <__aeabi_dmul+0xb4>
 80005a2:	fba0 ce02 	umull	ip, lr, r0, r2
 80005a6:	f04f 0500 	mov.w	r5, #0
 80005aa:	fbe1 e502 	umlal	lr, r5, r1, r2
 80005ae:	f006 4200 	and.w	r2, r6, #2147483648	; 0x80000000
 80005b2:	fbe0 e503 	umlal	lr, r5, r0, r3
 80005b6:	f04f 0600 	mov.w	r6, #0
 80005ba:	fbe1 5603 	umlal	r5, r6, r1, r3
 80005be:	f09c 0f00 	teq	ip, #0
 80005c2:	bf18      	it	ne
 80005c4:	f04e 0e01 	orrne.w	lr, lr, #1
 80005c8:	f1a4 04ff 	sub.w	r4, r4, #255	; 0xff
 80005cc:	f5b6 7f00 	cmp.w	r6, #512	; 0x200
 80005d0:	f564 7440 	sbc.w	r4, r4, #768	; 0x300
 80005d4:	d204      	bcs.n	80005e0 <__aeabi_dmul+0x80>
 80005d6:	ea5f 0e4e 	movs.w	lr, lr, lsl #1
 80005da:	416d      	adcs	r5, r5
 80005dc:	eb46 0606 	adc.w	r6, r6, r6
 80005e0:	ea42 21c6 	orr.w	r1, r2, r6, lsl #11
 80005e4:	ea41 5155 	orr.w	r1, r1, r5, lsr #21
 80005e8:	ea4f 20c5 	mov.w	r0, r5, lsl #11
 80005ec:	ea40 505e 	orr.w	r0, r0, lr, lsr #21
 80005f0:	ea4f 2ece 	mov.w	lr, lr, lsl #11
 80005f4:	f1b4 0cfd 	subs.w	ip, r4, #253	; 0xfd
 80005f8:	bf88      	it	hi
 80005fa:	f5bc 6fe0 	cmphi.w	ip, #1792	; 0x700
 80005fe:	d81e      	bhi.n	800063e <__aeabi_dmul+0xde>
 8000600:	f1be 4f00 	cmp.w	lr, #2147483648	; 0x80000000
 8000604:	bf08      	it	eq
 8000606:	ea5f 0e50 	movseq.w	lr, r0, lsr #1
 800060a:	f150 0000 	adcs.w	r0, r0, #0
 800060e:	eb41 5104 	adc.w	r1, r1, r4, lsl #20
 8000612:	bd70      	pop	{r4, r5, r6, pc}
 8000614:	f006 4600 	and.w	r6, r6, #2147483648	; 0x80000000
 8000618:	ea46 0101 	orr.w	r1, r6, r1
 800061c:	ea40 0002 	orr.w	r0, r0, r2
 8000620:	ea81 0103 	eor.w	r1, r1, r3
 8000624:	ebb4 045c 	subs.w	r4, r4, ip, lsr #1
 8000628:	bfc2      	ittt	gt
 800062a:	ebd4 050c 	rsbsgt	r5, r4, ip
 800062e:	ea41 5104 	orrgt.w	r1, r1, r4, lsl #20
 8000632:	bd70      	popgt	{r4, r5, r6, pc}
 8000634:	f441 1180 	orr.w	r1, r1, #1048576	; 0x100000
 8000638:	f04f 0e00 	mov.w	lr, #0
 800063c:	3c01      	subs	r4, #1
 800063e:	f300 80ab 	bgt.w	8000798 <__aeabi_dmul+0x238>
 8000642:	f114 0f36 	cmn.w	r4, #54	; 0x36
 8000646:	bfde      	ittt	le
 8000648:	2000      	movle	r0, #0
 800064a:	f001 4100 	andle.w	r1, r1, #2147483648	; 0x80000000
 800064e:	bd70      	pople	{r4, r5, r6, pc}
 8000650:	f1c4 0400 	rsb	r4, r4, #0
 8000654:	3c20      	subs	r4, #32
 8000656:	da35      	bge.n	80006c4 <__aeabi_dmul+0x164>
 8000658:	340c      	adds	r4, #12
 800065a:	dc1b      	bgt.n	8000694 <__aeabi_dmul+0x134>
 800065c:	f104 0414 	add.w	r4, r4, #20
 8000660:	f1c4 0520 	rsb	r5, r4, #32
 8000664:	fa00 f305 	lsl.w	r3, r0, r5
 8000668:	fa20 f004 	lsr.w	r0, r0, r4
 800066c:	fa01 f205 	lsl.w	r2, r1, r5
 8000670:	ea40 0002 	orr.w	r0, r0, r2
 8000674:	f001 4200 	and.w	r2, r1, #2147483648	; 0x80000000
 8000678:	f021 4100 	bic.w	r1, r1, #2147483648	; 0x80000000
 800067c:	eb10 70d3 	adds.w	r0, r0, r3, lsr #31
 8000680:	fa21 f604 	lsr.w	r6, r1, r4
 8000684:	eb42 0106 	adc.w	r1, r2, r6
 8000688:	ea5e 0e43 	orrs.w	lr, lr, r3, lsl #1
 800068c:	bf08      	it	eq
 800068e:	ea20 70d3 	biceq.w	r0, r0, r3, lsr #31
 8000692:	bd70      	pop	{r4, r5, r6, pc}
 8000694:	f1c4 040c 	rsb	r4, r4, #12
 8000698:	f1c4 0520 	rsb	r5, r4, #32
 800069c:	fa00 f304 	lsl.w	r3, r0, r4
 80006a0:	fa20 f005 	lsr.w	r0, r0, r5
 80006a4:	fa01 f204 	lsl.w	r2, r1, r4
 80006a8:	ea40 0002 	orr.w	r0, r0, r2
 80006ac:	f001 4100 	and.w	r1, r1, #2147483648	; 0x80000000
 80006b0:	eb10 70d3 	adds.w	r0, r0, r3, lsr #31
 80006b4:	f141 0100 	adc.w	r1, r1, #0
 80006b8:	ea5e 0e43 	orrs.w	lr, lr, r3, lsl #1
 80006bc:	bf08      	it	eq
 80006be:	ea20 70d3 	biceq.w	r0, r0, r3, lsr #31
 80006c2:	bd70      	pop	{r4, r5, r6, pc}
 80006c4:	f1c4 0520 	rsb	r5, r4, #32
 80006c8:	fa00 f205 	lsl.w	r2, r0, r5
 80006cc:	ea4e 0e02 	orr.w	lr, lr, r2
 80006d0:	fa20 f304 	lsr.w	r3, r0, r4
 80006d4:	fa01 f205 	lsl.w	r2, r1, r5
 80006d8:	ea43 0302 	orr.w	r3, r3, r2
 80006dc:	fa21 f004 	lsr.w	r0, r1, r4
 80006e0:	f001 4100 	and.w	r1, r1, #2147483648	; 0x80000000
 80006e4:	fa21 f204 	lsr.w	r2, r1, r4
 80006e8:	ea20 0002 	bic.w	r0, r0, r2
 80006ec:	eb00 70d3 	add.w	r0, r0, r3, lsr #31
 80006f0:	ea5e 0e43 	orrs.w	lr, lr, r3, lsl #1
 80006f4:	bf08      	it	eq
 80006f6:	ea20 70d3 	biceq.w	r0, r0, r3, lsr #31
 80006fa:	bd70      	pop	{r4, r5, r6, pc}
 80006fc:	f094 0f00 	teq	r4, #0
 8000700:	d10f      	bne.n	8000722 <__aeabi_dmul+0x1c2>
 8000702:	f001 4600 	and.w	r6, r1, #2147483648	; 0x80000000
 8000706:	0040      	lsls	r0, r0, #1
 8000708:	eb41 0101 	adc.w	r1, r1, r1
 800070c:	f411 1f80 	tst.w	r1, #1048576	; 0x100000
 8000710:	bf08      	it	eq
 8000712:	3c01      	subeq	r4, #1
 8000714:	d0f7      	beq.n	8000706 <__aeabi_dmul+0x1a6>
 8000716:	ea41 0106 	orr.w	r1, r1, r6
 800071a:	f095 0f00 	teq	r5, #0
 800071e:	bf18      	it	ne
 8000720:	4770      	bxne	lr
 8000722:	f003 4600 	and.w	r6, r3, #2147483648	; 0x80000000
 8000726:	0052      	lsls	r2, r2, #1
 8000728:	eb43 0303 	adc.w	r3, r3, r3
 800072c:	f413 1f80 	tst.w	r3, #1048576	; 0x100000
 8000730:	bf08      	it	eq
 8000732:	3d01      	subeq	r5, #1
 8000734:	d0f7      	beq.n	8000726 <__aeabi_dmul+0x1c6>
 8000736:	ea43 0306 	orr.w	r3, r3, r6
 800073a:	4770      	bx	lr
 800073c:	ea94 0f0c 	teq	r4, ip
 8000740:	ea0c 5513 	and.w	r5, ip, r3, lsr #20
 8000744:	bf18      	it	ne
 8000746:	ea95 0f0c 	teqne	r5, ip
 800074a:	d00c      	beq.n	8000766 <__aeabi_dmul+0x206>
 800074c:	ea50 0641 	orrs.w	r6, r0, r1, lsl #1
 8000750:	bf18      	it	ne
 8000752:	ea52 0643 	orrsne.w	r6, r2, r3, lsl #1
 8000756:	d1d1      	bne.n	80006fc <__aeabi_dmul+0x19c>
 8000758:	ea81 0103 	eor.w	r1, r1, r3
 800075c:	f001 4100 	and.w	r1, r1, #2147483648	; 0x80000000
 8000760:	f04f 0000 	mov.w	r0, #0
 8000764:	bd70      	pop	{r4, r5, r6, pc}
 8000766:	ea50 0641 	orrs.w	r6, r0, r1, lsl #1
 800076a:	bf06      	itte	eq
 800076c:	4610      	moveq	r0, r2
 800076e:	4619      	moveq	r1, r3
 8000770:	ea52 0643 	orrsne.w	r6, r2, r3, lsl #1
 8000774:	d019      	beq.n	80007aa <__aeabi_dmul+0x24a>
 8000776:	ea94 0f0c 	teq	r4, ip
 800077a:	d102      	bne.n	8000782 <__aeabi_dmul+0x222>
 800077c:	ea50 3601 	orrs.w	r6, r0, r1, lsl #12
 8000780:	d113      	bne.n	80007aa <__aeabi_dmul+0x24a>
 8000782:	ea95 0f0c 	teq	r5, ip
 8000786:	d105      	bne.n	8000794 <__aeabi_dmul+0x234>
 8000788:	ea52 3603 	orrs.w	r6, r2, r3, lsl #12
 800078c:	bf1c      	itt	ne
 800078e:	4610      	movne	r0, r2
 8000790:	4619      	movne	r1, r3
 8000792:	d10a      	bne.n	80007aa <__aeabi_dmul+0x24a>
 8000794:	ea81 0103 	eor.w	r1, r1, r3
 8000798:	f001 4100 	and.w	r1, r1, #2147483648	; 0x80000000
 800079c:	f041 41fe 	orr.w	r1, r1, #2130706432	; 0x7f000000
 80007a0:	f441 0170 	orr.w	r1, r1, #15728640	; 0xf00000
 80007a4:	f04f 0000 	mov.w	r0, #0
 80007a8:	bd70      	pop	{r4, r5, r6, pc}
 80007aa:	f041 41fe 	orr.w	r1, r1, #2130706432	; 0x7f000000
 80007ae:	f441 0178 	orr.w	r1, r1, #16252928	; 0xf80000
 80007b2:	bd70      	pop	{r4, r5, r6, pc}

080007b4 <__aeabi_ddiv>:
 80007b4:	b570      	push	{r4, r5, r6, lr}
 80007b6:	f04f 0cff 	mov.w	ip, #255	; 0xff
 80007ba:	f44c 6ce0 	orr.w	ip, ip, #1792	; 0x700
 80007be:	ea1c 5411 	ands.w	r4, ip, r1, lsr #20
 80007c2:	bf1d      	ittte	ne
 80007c4:	ea1c 5513 	andsne.w	r5, ip, r3, lsr #20
 80007c8:	ea94 0f0c 	teqne	r4, ip
 80007cc:	ea95 0f0c 	teqne	r5, ip
 80007d0:	f000 f8a7 	bleq	8000922 <__aeabi_ddiv+0x16e>
 80007d4:	eba4 0405 	sub.w	r4, r4, r5
 80007d8:	ea81 0e03 	eor.w	lr, r1, r3
 80007dc:	ea52 3503 	orrs.w	r5, r2, r3, lsl #12
 80007e0:	ea4f 3101 	mov.w	r1, r1, lsl #12
 80007e4:	f000 8088 	beq.w	80008f8 <__aeabi_ddiv+0x144>
 80007e8:	ea4f 3303 	mov.w	r3, r3, lsl #12
 80007ec:	f04f 5580 	mov.w	r5, #268435456	; 0x10000000
 80007f0:	ea45 1313 	orr.w	r3, r5, r3, lsr #4
 80007f4:	ea43 6312 	orr.w	r3, r3, r2, lsr #24
 80007f8:	ea4f 2202 	mov.w	r2, r2, lsl #8
 80007fc:	ea45 1511 	orr.w	r5, r5, r1, lsr #4
 8000800:	ea45 6510 	orr.w	r5, r5, r0, lsr #24
 8000804:	ea4f 2600 	mov.w	r6, r0, lsl #8
 8000808:	f00e 4100 	and.w	r1, lr, #2147483648	; 0x80000000
 800080c:	429d      	cmp	r5, r3
 800080e:	bf08      	it	eq
 8000810:	4296      	cmpeq	r6, r2
 8000812:	f144 04fd 	adc.w	r4, r4, #253	; 0xfd
 8000816:	f504 7440 	add.w	r4, r4, #768	; 0x300
 800081a:	d202      	bcs.n	8000822 <__aeabi_ddiv+0x6e>
 800081c:	085b      	lsrs	r3, r3, #1
 800081e:	ea4f 0232 	mov.w	r2, r2, rrx
 8000822:	1ab6      	subs	r6, r6, r2
 8000824:	eb65 0503 	sbc.w	r5, r5, r3
 8000828:	085b      	lsrs	r3, r3, #1
 800082a:	ea4f 0232 	mov.w	r2, r2, rrx
 800082e:	f44f 1080 	mov.w	r0, #1048576	; 0x100000
 8000832:	f44f 2c00 	mov.w	ip, #524288	; 0x80000
 8000836:	ebb6 0e02 	subs.w	lr, r6, r2
 800083a:	eb75 0e03 	sbcs.w	lr, r5, r3
 800083e:	bf22      	ittt	cs
 8000840:	1ab6      	subcs	r6, r6, r2
 8000842:	4675      	movcs	r5, lr
 8000844:	ea40 000c 	orrcs.w	r0, r0, ip
 8000848:	085b      	lsrs	r3, r3, #1
 800084a:	ea4f 0232 	mov.w	r2, r2, rrx
 800084e:	ebb6 0e02 	subs.w	lr, r6, r2
 8000852:	eb75 0e03 	sbcs.w	lr, r5, r3
 8000856:	bf22      	ittt	cs
 8000858:	1ab6      	subcs	r6, r6, r2
 800085a:	4675      	movcs	r5, lr
 800085c:	ea40 005c 	orrcs.w	r0, r0, ip, lsr #1
 8000860:	085b      	lsrs	r3, r3, #1
 8000862:	ea4f 0232 	mov.w	r2, r2, rrx
 8000866:	ebb6 0e02 	subs.w	lr, r6, r2
 800086a:	eb75 0e03 	sbcs.w	lr, r5, r3
 800086e:	bf22      	ittt	cs
 8000870:	1ab6      	subcs	r6, r6, r2
 8000872:	4675      	movcs	r5, lr
 8000874:	ea40 009c 	orrcs.w	r0, r0, ip, lsr #2
 8000878:	085b      	lsrs	r3, r3, #1
 800087a:	ea4f 0232 	mov.w	r2, r2, rrx
 800087e:	ebb6 0e02 	subs.w	lr, r6, r2
 8000882:	eb75 0e03 	sbcs.w	lr, r5, r3
 8000886:	bf22      	ittt	cs
 8000888:	1ab6      	subcs	r6, r6, r2
 800088a:	4675      	movcs	r5, lr
 800088c:	ea40 00dc 	orrcs.w	r0, r0, ip, lsr #3
 8000890:	ea55 0e06 	orrs.w	lr, r5, r6
 8000894:	d018      	beq.n	80008c8 <__aeabi_ddiv+0x114>
 8000896:	ea4f 1505 	mov.w	r5, r5, lsl #4
 800089a:	ea45 7516 	orr.w	r5, r5, r6, lsr #28
 800089e:	ea4f 1606 	mov.w	r6, r6, lsl #4
 80008a2:	ea4f 03c3 	mov.w	r3, r3, lsl #3
 80008a6:	ea43 7352 	orr.w	r3, r3, r2, lsr #29
 80008aa:	ea4f 02c2 	mov.w	r2, r2, lsl #3
 80008ae:	ea5f 1c1c 	movs.w	ip, ip, lsr #4
 80008b2:	d1c0      	bne.n	8000836 <__aeabi_ddiv+0x82>
 80008b4:	f411 1f80 	tst.w	r1, #1048576	; 0x100000
 80008b8:	d10b      	bne.n	80008d2 <__aeabi_ddiv+0x11e>
 80008ba:	ea41 0100 	orr.w	r1, r1, r0
 80008be:	f04f 0000 	mov.w	r0, #0
 80008c2:	f04f 4c00 	mov.w	ip, #2147483648	; 0x80000000
 80008c6:	e7b6      	b.n	8000836 <__aeabi_ddiv+0x82>
 80008c8:	f411 1f80 	tst.w	r1, #1048576	; 0x100000
 80008cc:	bf04      	itt	eq
 80008ce:	4301      	orreq	r1, r0
 80008d0:	2000      	moveq	r0, #0
 80008d2:	f1b4 0cfd 	subs.w	ip, r4, #253	; 0xfd
 80008d6:	bf88      	it	hi
 80008d8:	f5bc 6fe0 	cmphi.w	ip, #1792	; 0x700
 80008dc:	f63f aeaf 	bhi.w	800063e <__aeabi_dmul+0xde>
 80008e0:	ebb5 0c03 	subs.w	ip, r5, r3
 80008e4:	bf04      	itt	eq
 80008e6:	ebb6 0c02 	subseq.w	ip, r6, r2
 80008ea:	ea5f 0c50 	movseq.w	ip, r0, lsr #1
 80008ee:	f150 0000 	adcs.w	r0, r0, #0
 80008f2:	eb41 5104 	adc.w	r1, r1, r4, lsl #20
 80008f6:	bd70      	pop	{r4, r5, r6, pc}
 80008f8:	f00e 4e00 	and.w	lr, lr, #2147483648	; 0x80000000
 80008fc:	ea4e 3111 	orr.w	r1, lr, r1, lsr #12
 8000900:	eb14 045c 	adds.w	r4, r4, ip, lsr #1
 8000904:	bfc2      	ittt	gt
 8000906:	ebd4 050c 	rsbsgt	r5, r4, ip
 800090a:	ea41 5104 	orrgt.w	r1, r1, r4, lsl #20
 800090e:	bd70      	popgt	{r4, r5, r6, pc}
 8000910:	f441 1180 	orr.w	r1, r1, #1048576	; 0x100000
 8000914:	f04f 0e00 	mov.w	lr, #0
 8000918:	3c01      	subs	r4, #1
 800091a:	e690      	b.n	800063e <__aeabi_dmul+0xde>
 800091c:	ea45 0e06 	orr.w	lr, r5, r6
 8000920:	e68d      	b.n	800063e <__aeabi_dmul+0xde>
 8000922:	ea0c 5513 	and.w	r5, ip, r3, lsr #20
 8000926:	ea94 0f0c 	teq	r4, ip
 800092a:	bf08      	it	eq
 800092c:	ea95 0f0c 	teqeq	r5, ip
 8000930:	f43f af3b 	beq.w	80007aa <__aeabi_dmul+0x24a>
 8000934:	ea94 0f0c 	teq	r4, ip
 8000938:	d10a      	bne.n	8000950 <__aeabi_ddiv+0x19c>
 800093a:	ea50 3401 	orrs.w	r4, r0, r1, lsl #12
 800093e:	f47f af34 	bne.w	80007aa <__aeabi_dmul+0x24a>
 8000942:	ea95 0f0c 	teq	r5, ip
 8000946:	f47f af25 	bne.w	8000794 <__aeabi_dmul+0x234>
 800094a:	4610      	mov	r0, r2
 800094c:	4619      	mov	r1, r3
 800094e:	e72c      	b.n	80007aa <__aeabi_dmul+0x24a>
 8000950:	ea95 0f0c 	teq	r5, ip
 8000954:	d106      	bne.n	8000964 <__aeabi_ddiv+0x1b0>
 8000956:	ea52 3503 	orrs.w	r5, r2, r3, lsl #12
 800095a:	f43f aefd 	beq.w	8000758 <__aeabi_dmul+0x1f8>
 800095e:	4610      	mov	r0, r2
 8000960:	4619      	mov	r1, r3
 8000962:	e722      	b.n	80007aa <__aeabi_dmul+0x24a>
 8000964:	ea50 0641 	orrs.w	r6, r0, r1, lsl #1
 8000968:	bf18      	it	ne
 800096a:	ea52 0643 	orrsne.w	r6, r2, r3, lsl #1
 800096e:	f47f aec5 	bne.w	80006fc <__aeabi_dmul+0x19c>
 8000972:	ea50 0441 	orrs.w	r4, r0, r1, lsl #1
 8000976:	f47f af0d 	bne.w	8000794 <__aeabi_dmul+0x234>
 800097a:	ea52 0543 	orrs.w	r5, r2, r3, lsl #1
 800097e:	f47f aeeb 	bne.w	8000758 <__aeabi_dmul+0x1f8>
 8000982:	e712      	b.n	80007aa <__aeabi_dmul+0x24a>

08000984 <__gedf2>:
 8000984:	f04f 3cff 	mov.w	ip, #4294967295
 8000988:	e006      	b.n	8000998 <__cmpdf2+0x4>
 800098a:	bf00      	nop

0800098c <__ledf2>:
 800098c:	f04f 0c01 	mov.w	ip, #1
 8000990:	e002      	b.n	8000998 <__cmpdf2+0x4>
 8000992:	bf00      	nop

08000994 <__cmpdf2>:
 8000994:	f04f 0c01 	mov.w	ip, #1
 8000998:	f84d cd04 	str.w	ip, [sp, #-4]!
 800099c:	ea4f 0c41 	mov.w	ip, r1, lsl #1
 80009a0:	ea7f 5c6c 	mvns.w	ip, ip, asr #21
 80009a4:	ea4f 0c43 	mov.w	ip, r3, lsl #1
 80009a8:	bf18      	it	ne
 80009aa:	ea7f 5c6c 	mvnsne.w	ip, ip, asr #21
 80009ae:	d01b      	beq.n	80009e8 <__cmpdf2+0x54>
 80009b0:	b001      	add	sp, #4
 80009b2:	ea50 0c41 	orrs.w	ip, r0, r1, lsl #1
 80009b6:	bf0c      	ite	eq
 80009b8:	ea52 0c43 	orrseq.w	ip, r2, r3, lsl #1
 80009bc:	ea91 0f03 	teqne	r1, r3
 80009c0:	bf02      	ittt	eq
 80009c2:	ea90 0f02 	teqeq	r0, r2
 80009c6:	2000      	moveq	r0, #0
 80009c8:	4770      	bxeq	lr
 80009ca:	f110 0f00 	cmn.w	r0, #0
 80009ce:	ea91 0f03 	teq	r1, r3
 80009d2:	bf58      	it	pl
 80009d4:	4299      	cmppl	r1, r3
 80009d6:	bf08      	it	eq
 80009d8:	4290      	cmpeq	r0, r2
 80009da:	bf2c      	ite	cs
 80009dc:	17d8      	asrcs	r0, r3, #31
 80009de:	ea6f 70e3 	mvncc.w	r0, r3, asr #31
 80009e2:	f040 0001 	orr.w	r0, r0, #1
 80009e6:	4770      	bx	lr
 80009e8:	ea4f 0c41 	mov.w	ip, r1, lsl #1
 80009ec:	ea7f 5c6c 	mvns.w	ip, ip, asr #21
 80009f0:	d102      	bne.n	80009f8 <__cmpdf2+0x64>
 80009f2:	ea50 3c01 	orrs.w	ip, r0, r1, lsl #12
 80009f6:	d107      	bne.n	8000a08 <__cmpdf2+0x74>
 80009f8:	ea4f 0c43 	mov.w	ip, r3, lsl #1
 80009fc:	ea7f 5c6c 	mvns.w	ip, ip, asr #21
 8000a00:	d1d6      	bne.n	80009b0 <__cmpdf2+0x1c>
 8000a02:	ea52 3c03 	orrs.w	ip, r2, r3, lsl #12
 8000a06:	d0d3      	beq.n	80009b0 <__cmpdf2+0x1c>
 8000a08:	f85d 0b04 	ldr.w	r0, [sp], #4
 8000a0c:	4770      	bx	lr
 8000a0e:	bf00      	nop

08000a10 <__aeabi_cdrcmple>:
 8000a10:	4684      	mov	ip, r0
 8000a12:	4610      	mov	r0, r2
 8000a14:	4662      	mov	r2, ip
 8000a16:	468c      	mov	ip, r1
 8000a18:	4619      	mov	r1, r3
 8000a1a:	4663      	mov	r3, ip
 8000a1c:	e000      	b.n	8000a20 <__aeabi_cdcmpeq>
 8000a1e:	bf00      	nop

08000a20 <__aeabi_cdcmpeq>:
 8000a20:	b501      	push	{r0, lr}
 8000a22:	f7ff ffb7 	bl	8000994 <__cmpdf2>
 8000a26:	2800      	cmp	r0, #0
 8000a28:	bf48      	it	mi
 8000a2a:	f110 0f00 	cmnmi.w	r0, #0
 8000a2e:	bd01      	pop	{r0, pc}

08000a30 <__aeabi_dcmpeq>:
 8000a30:	f84d ed08 	str.w	lr, [sp, #-8]!
 8000a34:	f7ff fff4 	bl	8000a20 <__aeabi_cdcmpeq>
 8000a38:	bf0c      	ite	eq
 8000a3a:	2001      	moveq	r0, #1
 8000a3c:	2000      	movne	r0, #0
 8000a3e:	f85d fb08 	ldr.w	pc, [sp], #8
 8000a42:	bf00      	nop

08000a44 <__aeabi_dcmplt>:
 8000a44:	f84d ed08 	str.w	lr, [sp, #-8]!
 8000a48:	f7ff ffea 	bl	8000a20 <__aeabi_cdcmpeq>
 8000a4c:	bf34      	ite	cc
 8000a4e:	2001      	movcc	r0, #1
 8000a50:	2000      	movcs	r0, #0
 8000a52:	f85d fb08 	ldr.w	pc, [sp], #8
 8000a56:	bf00      	nop

08000a58 <__aeabi_dcmple>:
 8000a58:	f84d ed08 	str.w	lr, [sp, #-8]!
 8000a5c:	f7ff ffe0 	bl	8000a20 <__aeabi_cdcmpeq>
 8000a60:	bf94      	ite	ls
 8000a62:	2001      	movls	r0, #1
 8000a64:	2000      	movhi	r0, #0
 8000a66:	f85d fb08 	ldr.w	pc, [sp], #8
 8000a6a:	bf00      	nop

08000a6c <__aeabi_dcmpge>:
 8000a6c:	f84d ed08 	str.w	lr, [sp, #-8]!
 8000a70:	f7ff ffce 	bl	8000a10 <__aeabi_cdrcmple>
 8000a74:	bf94      	ite	ls
 8000a76:	2001      	movls	r0, #1
 8000a78:	2000      	movhi	r0, #0
 8000a7a:	f85d fb08 	ldr.w	pc, [sp], #8
 8000a7e:	bf00      	nop

08000a80 <__aeabi_dcmpgt>:
 8000a80:	f84d ed08 	str.w	lr, [sp, #-8]!
 8000a84:	f7ff ffc4 	bl	8000a10 <__aeabi_cdrcmple>
 8000a88:	bf34      	ite	cc
 8000a8a:	2001      	movcc	r0, #1
 8000a8c:	2000      	movcs	r0, #0
 8000a8e:	f85d fb08 	ldr.w	pc, [sp], #8
 8000a92:	bf00      	nop

08000a94 <__aeabi_dcmpun>:
 8000a94:	ea4f 0c41 	mov.w	ip, r1, lsl #1
 8000a98:	ea7f 5c6c 	mvns.w	ip, ip, asr #21
 8000a9c:	d102      	bne.n	8000aa4 <__aeabi_dcmpun+0x10>
 8000a9e:	ea50 3c01 	orrs.w	ip, r0, r1, lsl #12
 8000aa2:	d10a      	bne.n	8000aba <__aeabi_dcmpun+0x26>
 8000aa4:	ea4f 0c43 	mov.w	ip, r3, lsl #1
 8000aa8:	ea7f 5c6c 	mvns.w	ip, ip, asr #21
 8000aac:	d102      	bne.n	8000ab4 <__aeabi_dcmpun+0x20>
 8000aae:	ea52 3c03 	orrs.w	ip, r2, r3, lsl #12
 8000ab2:	d102      	bne.n	8000aba <__aeabi_dcmpun+0x26>
 8000ab4:	f04f 0000 	mov.w	r0, #0
 8000ab8:	4770      	bx	lr
 8000aba:	f04f 0001 	mov.w	r0, #1
 8000abe:	4770      	bx	lr

08000ac0 <__aeabi_d2iz>:
 8000ac0:	ea4f 0241 	mov.w	r2, r1, lsl #1
 8000ac4:	f512 1200 	adds.w	r2, r2, #2097152	; 0x200000
 8000ac8:	d215      	bcs.n	8000af6 <__aeabi_d2iz+0x36>
 8000aca:	d511      	bpl.n	8000af0 <__aeabi_d2iz+0x30>
 8000acc:	f46f 7378 	mvn.w	r3, #992	; 0x3e0
 8000ad0:	ebb3 5262 	subs.w	r2, r3, r2, asr #21
 8000ad4:	d912      	bls.n	8000afc <__aeabi_d2iz+0x3c>
 8000ad6:	ea4f 23c1 	mov.w	r3, r1, lsl #11
 8000ada:	f043 4300 	orr.w	r3, r3, #2147483648	; 0x80000000
 8000ade:	ea43 5350 	orr.w	r3, r3, r0, lsr #21
 8000ae2:	f011 4f00 	tst.w	r1, #2147483648	; 0x80000000
 8000ae6:	fa23 f002 	lsr.w	r0, r3, r2
 8000aea:	bf18      	it	ne
 8000aec:	4240      	negne	r0, r0
 8000aee:	4770      	bx	lr
 8000af0:	f04f 0000 	mov.w	r0, #0
 8000af4:	4770      	bx	lr
 8000af6:	ea50 3001 	orrs.w	r0, r0, r1, lsl #12
 8000afa:	d105      	bne.n	8000b08 <__aeabi_d2iz+0x48>
 8000afc:	f011 4000 	ands.w	r0, r1, #2147483648	; 0x80000000
 8000b00:	bf08      	it	eq
 8000b02:	f06f 4000 	mvneq.w	r0, #2147483648	; 0x80000000
 8000b06:	4770      	bx	lr
 8000b08:	f04f 0000 	mov.w	r0, #0
 8000b0c:	4770      	bx	lr
 8000b0e:	bf00      	nop

08000b10 <__aeabi_d2f>:
 8000b10:	ea4f 0241 	mov.w	r2, r1, lsl #1
 8000b14:	f1b2 43e0 	subs.w	r3, r2, #1879048192	; 0x70000000
 8000b18:	bf24      	itt	cs
 8000b1a:	f5b3 1c00 	subscs.w	ip, r3, #2097152	; 0x200000
 8000b1e:	f1dc 5cfe 	rsbscs	ip, ip, #532676608	; 0x1fc00000
 8000b22:	d90d      	bls.n	8000b40 <__aeabi_d2f+0x30>
 8000b24:	f001 4c00 	and.w	ip, r1, #2147483648	; 0x80000000
 8000b28:	ea4f 02c0 	mov.w	r2, r0, lsl #3
 8000b2c:	ea4c 7050 	orr.w	r0, ip, r0, lsr #29
 8000b30:	f1b2 4f00 	cmp.w	r2, #2147483648	; 0x80000000
 8000b34:	eb40 0083 	adc.w	r0, r0, r3, lsl #2
 8000b38:	bf08      	it	eq
 8000b3a:	f020 0001 	biceq.w	r0, r0, #1
 8000b3e:	4770      	bx	lr
 8000b40:	f011 4f80 	tst.w	r1, #1073741824	; 0x40000000
 8000b44:	d121      	bne.n	8000b8a <__aeabi_d2f+0x7a>
 8000b46:	f113 7238 	adds.w	r2, r3, #48234496	; 0x2e00000
 8000b4a:	bfbc      	itt	lt
 8000b4c:	f001 4000 	andlt.w	r0, r1, #2147483648	; 0x80000000
 8000b50:	4770      	bxlt	lr
 8000b52:	f441 1180 	orr.w	r1, r1, #1048576	; 0x100000
 8000b56:	ea4f 5252 	mov.w	r2, r2, lsr #21
 8000b5a:	f1c2 0218 	rsb	r2, r2, #24
 8000b5e:	f1c2 0c20 	rsb	ip, r2, #32
 8000b62:	fa10 f30c 	lsls.w	r3, r0, ip
 8000b66:	fa20 f002 	lsr.w	r0, r0, r2
 8000b6a:	bf18      	it	ne
 8000b6c:	f040 0001 	orrne.w	r0, r0, #1
 8000b70:	ea4f 23c1 	mov.w	r3, r1, lsl #11
 8000b74:	ea4f 23d3 	mov.w	r3, r3, lsr #11
 8000b78:	fa03 fc0c 	lsl.w	ip, r3, ip
 8000b7c:	ea40 000c 	orr.w	r0, r0, ip
 8000b80:	fa23 f302 	lsr.w	r3, r3, r2
 8000b84:	ea4f 0343 	mov.w	r3, r3, lsl #1
 8000b88:	e7cc      	b.n	8000b24 <__aeabi_d2f+0x14>
 8000b8a:	ea7f 5362 	mvns.w	r3, r2, asr #21
 8000b8e:	d107      	bne.n	8000ba0 <__aeabi_d2f+0x90>
 8000b90:	ea50 3301 	orrs.w	r3, r0, r1, lsl #12
 8000b94:	bf1e      	ittt	ne
 8000b96:	f04f 40fe 	movne.w	r0, #2130706432	; 0x7f000000
 8000b9a:	f440 0040 	orrne.w	r0, r0, #12582912	; 0xc00000
 8000b9e:	4770      	bxne	lr
 8000ba0:	f001 4000 	and.w	r0, r1, #2147483648	; 0x80000000
 8000ba4:	f040 40fe 	orr.w	r0, r0, #2130706432	; 0x7f000000
 8000ba8:	f440 0000 	orr.w	r0, r0, #8388608	; 0x800000
 8000bac:	4770      	bx	lr
 8000bae:	bf00      	nop

08000bb0 <__aeabi_uldivmod>:
 8000bb0:	b953      	cbnz	r3, 8000bc8 <__aeabi_uldivmod+0x18>
 8000bb2:	b94a      	cbnz	r2, 8000bc8 <__aeabi_uldivmod+0x18>
 8000bb4:	2900      	cmp	r1, #0
 8000bb6:	bf08      	it	eq
 8000bb8:	2800      	cmpeq	r0, #0
 8000bba:	bf1c      	itt	ne
 8000bbc:	f04f 31ff 	movne.w	r1, #4294967295
 8000bc0:	f04f 30ff 	movne.w	r0, #4294967295
 8000bc4:	f000 b972 	b.w	8000eac <__aeabi_idiv0>
 8000bc8:	f1ad 0c08 	sub.w	ip, sp, #8
 8000bcc:	e96d ce04 	strd	ip, lr, [sp, #-16]!
 8000bd0:	f000 f806 	bl	8000be0 <__udivmoddi4>
 8000bd4:	f8dd e004 	ldr.w	lr, [sp, #4]
 8000bd8:	e9dd 2302 	ldrd	r2, r3, [sp, #8]
 8000bdc:	b004      	add	sp, #16
 8000bde:	4770      	bx	lr

08000be0 <__udivmoddi4>:
 8000be0:	e92d 47f0 	stmdb	sp!, {r4, r5, r6, r7, r8, r9, sl, lr}
 8000be4:	9e08      	ldr	r6, [sp, #32]
 8000be6:	4604      	mov	r4, r0
 8000be8:	4688      	mov	r8, r1
 8000bea:	2b00      	cmp	r3, #0
 8000bec:	d14b      	bne.n	8000c86 <__udivmoddi4+0xa6>
 8000bee:	428a      	cmp	r2, r1
 8000bf0:	4615      	mov	r5, r2
 8000bf2:	d967      	bls.n	8000cc4 <__udivmoddi4+0xe4>
 8000bf4:	fab2 f282 	clz	r2, r2
 8000bf8:	b14a      	cbz	r2, 8000c0e <__udivmoddi4+0x2e>
 8000bfa:	f1c2 0720 	rsb	r7, r2, #32
 8000bfe:	fa01 f302 	lsl.w	r3, r1, r2
 8000c02:	fa20 f707 	lsr.w	r7, r0, r7
 8000c06:	4095      	lsls	r5, r2
 8000c08:	ea47 0803 	orr.w	r8, r7, r3
 8000c0c:	4094      	lsls	r4, r2
 8000c0e:	ea4f 4e15 	mov.w	lr, r5, lsr #16
 8000c12:	0c23      	lsrs	r3, r4, #16
 8000c14:	fbb8 f7fe 	udiv	r7, r8, lr
 8000c18:	fa1f fc85 	uxth.w	ip, r5
 8000c1c:	fb0e 8817 	mls	r8, lr, r7, r8
 8000c20:	ea43 4308 	orr.w	r3, r3, r8, lsl #16
 8000c24:	fb07 f10c 	mul.w	r1, r7, ip
 8000c28:	4299      	cmp	r1, r3
 8000c2a:	d909      	bls.n	8000c40 <__udivmoddi4+0x60>
 8000c2c:	18eb      	adds	r3, r5, r3
 8000c2e:	f107 30ff 	add.w	r0, r7, #4294967295
 8000c32:	f080 811b 	bcs.w	8000e6c <__udivmoddi4+0x28c>
 8000c36:	4299      	cmp	r1, r3
 8000c38:	f240 8118 	bls.w	8000e6c <__udivmoddi4+0x28c>
 8000c3c:	3f02      	subs	r7, #2
 8000c3e:	442b      	add	r3, r5
 8000c40:	1a5b      	subs	r3, r3, r1
 8000c42:	b2a4      	uxth	r4, r4
 8000c44:	fbb3 f0fe 	udiv	r0, r3, lr
 8000c48:	fb0e 3310 	mls	r3, lr, r0, r3
 8000c4c:	ea44 4403 	orr.w	r4, r4, r3, lsl #16
 8000c50:	fb00 fc0c 	mul.w	ip, r0, ip
 8000c54:	45a4      	cmp	ip, r4
 8000c56:	d909      	bls.n	8000c6c <__udivmoddi4+0x8c>
 8000c58:	192c      	adds	r4, r5, r4
 8000c5a:	f100 33ff 	add.w	r3, r0, #4294967295
 8000c5e:	f080 8107 	bcs.w	8000e70 <__udivmoddi4+0x290>
 8000c62:	45a4      	cmp	ip, r4
 8000c64:	f240 8104 	bls.w	8000e70 <__udivmoddi4+0x290>
 8000c68:	3802      	subs	r0, #2
 8000c6a:	442c      	add	r4, r5
 8000c6c:	ea40 4007 	orr.w	r0, r0, r7, lsl #16
 8000c70:	eba4 040c 	sub.w	r4, r4, ip
 8000c74:	2700      	movs	r7, #0
 8000c76:	b11e      	cbz	r6, 8000c80 <__udivmoddi4+0xa0>
 8000c78:	40d4      	lsrs	r4, r2
 8000c7a:	2300      	movs	r3, #0
 8000c7c:	e9c6 4300 	strd	r4, r3, [r6]
 8000c80:	4639      	mov	r1, r7
 8000c82:	e8bd 87f0 	ldmia.w	sp!, {r4, r5, r6, r7, r8, r9, sl, pc}
 8000c86:	428b      	cmp	r3, r1
 8000c88:	d909      	bls.n	8000c9e <__udivmoddi4+0xbe>
 8000c8a:	2e00      	cmp	r6, #0
 8000c8c:	f000 80eb 	beq.w	8000e66 <__udivmoddi4+0x286>
 8000c90:	2700      	movs	r7, #0
 8000c92:	e9c6 0100 	strd	r0, r1, [r6]
 8000c96:	4638      	mov	r0, r7
 8000c98:	4639      	mov	r1, r7
 8000c9a:	e8bd 87f0 	ldmia.w	sp!, {r4, r5, r6, r7, r8, r9, sl, pc}
 8000c9e:	fab3 f783 	clz	r7, r3
 8000ca2:	2f00      	cmp	r7, #0
 8000ca4:	d147      	bne.n	8000d36 <__udivmoddi4+0x156>
 8000ca6:	428b      	cmp	r3, r1
 8000ca8:	d302      	bcc.n	8000cb0 <__udivmoddi4+0xd0>
 8000caa:	4282      	cmp	r2, r0
 8000cac:	f200 80fa 	bhi.w	8000ea4 <__udivmoddi4+0x2c4>
 8000cb0:	1a84      	subs	r4, r0, r2
 8000cb2:	eb61 0303 	sbc.w	r3, r1, r3
 8000cb6:	2001      	movs	r0, #1
 8000cb8:	4698      	mov	r8, r3
 8000cba:	2e00      	cmp	r6, #0
 8000cbc:	d0e0      	beq.n	8000c80 <__udivmoddi4+0xa0>
 8000cbe:	e9c6 4800 	strd	r4, r8, [r6]
 8000cc2:	e7dd      	b.n	8000c80 <__udivmoddi4+0xa0>
 8000cc4:	b902      	cbnz	r2, 8000cc8 <__udivmoddi4+0xe8>
 8000cc6:	deff      	udf	#255	; 0xff
 8000cc8:	fab2 f282 	clz	r2, r2
 8000ccc:	2a00      	cmp	r2, #0
 8000cce:	f040 808f 	bne.w	8000df0 <__udivmoddi4+0x210>
 8000cd2:	1b49      	subs	r1, r1, r5
 8000cd4:	ea4f 4e15 	mov.w	lr, r5, lsr #16
 8000cd8:	fa1f f885 	uxth.w	r8, r5
 8000cdc:	2701      	movs	r7, #1
 8000cde:	fbb1 fcfe 	udiv	ip, r1, lr
 8000ce2:	0c23      	lsrs	r3, r4, #16
 8000ce4:	fb0e 111c 	mls	r1, lr, ip, r1
 8000ce8:	ea43 4301 	orr.w	r3, r3, r1, lsl #16
 8000cec:	fb08 f10c 	mul.w	r1, r8, ip
 8000cf0:	4299      	cmp	r1, r3
 8000cf2:	d907      	bls.n	8000d04 <__udivmoddi4+0x124>
 8000cf4:	18eb      	adds	r3, r5, r3
 8000cf6:	f10c 30ff 	add.w	r0, ip, #4294967295
 8000cfa:	d202      	bcs.n	8000d02 <__udivmoddi4+0x122>
 8000cfc:	4299      	cmp	r1, r3
 8000cfe:	f200 80cd 	bhi.w	8000e9c <__udivmoddi4+0x2bc>
 8000d02:	4684      	mov	ip, r0
 8000d04:	1a59      	subs	r1, r3, r1
 8000d06:	b2a3      	uxth	r3, r4
 8000d08:	fbb1 f0fe 	udiv	r0, r1, lr
 8000d0c:	fb0e 1410 	mls	r4, lr, r0, r1
 8000d10:	ea43 4404 	orr.w	r4, r3, r4, lsl #16
 8000d14:	fb08 f800 	mul.w	r8, r8, r0
 8000d18:	45a0      	cmp	r8, r4
 8000d1a:	d907      	bls.n	8000d2c <__udivmoddi4+0x14c>
 8000d1c:	192c      	adds	r4, r5, r4
 8000d1e:	f100 33ff 	add.w	r3, r0, #4294967295
 8000d22:	d202      	bcs.n	8000d2a <__udivmoddi4+0x14a>
 8000d24:	45a0      	cmp	r8, r4
 8000d26:	f200 80b6 	bhi.w	8000e96 <__udivmoddi4+0x2b6>
 8000d2a:	4618      	mov	r0, r3
 8000d2c:	eba4 0408 	sub.w	r4, r4, r8
 8000d30:	ea40 400c 	orr.w	r0, r0, ip, lsl #16
 8000d34:	e79f      	b.n	8000c76 <__udivmoddi4+0x96>
 8000d36:	f1c7 0c20 	rsb	ip, r7, #32
 8000d3a:	40bb      	lsls	r3, r7
 8000d3c:	fa22 fe0c 	lsr.w	lr, r2, ip
 8000d40:	ea4e 0e03 	orr.w	lr, lr, r3
 8000d44:	fa01 f407 	lsl.w	r4, r1, r7
 8000d48:	fa20 f50c 	lsr.w	r5, r0, ip
 8000d4c:	fa21 f30c 	lsr.w	r3, r1, ip
 8000d50:	ea4f 481e 	mov.w	r8, lr, lsr #16
 8000d54:	4325      	orrs	r5, r4
 8000d56:	fbb3 f9f8 	udiv	r9, r3, r8
 8000d5a:	0c2c      	lsrs	r4, r5, #16
 8000d5c:	fb08 3319 	mls	r3, r8, r9, r3
 8000d60:	fa1f fa8e 	uxth.w	sl, lr
 8000d64:	ea44 4303 	orr.w	r3, r4, r3, lsl #16
 8000d68:	fb09 f40a 	mul.w	r4, r9, sl
 8000d6c:	429c      	cmp	r4, r3
 8000d6e:	fa02 f207 	lsl.w	r2, r2, r7
 8000d72:	fa00 f107 	lsl.w	r1, r0, r7
 8000d76:	d90b      	bls.n	8000d90 <__udivmoddi4+0x1b0>
 8000d78:	eb1e 0303 	adds.w	r3, lr, r3
 8000d7c:	f109 30ff 	add.w	r0, r9, #4294967295
 8000d80:	f080 8087 	bcs.w	8000e92 <__udivmoddi4+0x2b2>
 8000d84:	429c      	cmp	r4, r3
 8000d86:	f240 8084 	bls.w	8000e92 <__udivmoddi4+0x2b2>
 8000d8a:	f1a9 0902 	sub.w	r9, r9, #2
 8000d8e:	4473      	add	r3, lr
 8000d90:	1b1b      	subs	r3, r3, r4
 8000d92:	b2ad      	uxth	r5, r5
 8000d94:	fbb3 f0f8 	udiv	r0, r3, r8
 8000d98:	fb08 3310 	mls	r3, r8, r0, r3
 8000d9c:	ea45 4403 	orr.w	r4, r5, r3, lsl #16
 8000da0:	fb00 fa0a 	mul.w	sl, r0, sl
 8000da4:	45a2      	cmp	sl, r4
 8000da6:	d908      	bls.n	8000dba <__udivmoddi4+0x1da>
 8000da8:	eb1e 0404 	adds.w	r4, lr, r4
 8000dac:	f100 33ff 	add.w	r3, r0, #4294967295
 8000db0:	d26b      	bcs.n	8000e8a <__udivmoddi4+0x2aa>
 8000db2:	45a2      	cmp	sl, r4
 8000db4:	d969      	bls.n	8000e8a <__udivmoddi4+0x2aa>
 8000db6:	3802      	subs	r0, #2
 8000db8:	4474      	add	r4, lr
 8000dba:	ea40 4009 	orr.w	r0, r0, r9, lsl #16
 8000dbe:	fba0 8902 	umull	r8, r9, r0, r2
 8000dc2:	eba4 040a 	sub.w	r4, r4, sl
 8000dc6:	454c      	cmp	r4, r9
 8000dc8:	46c2      	mov	sl, r8
 8000dca:	464b      	mov	r3, r9
 8000dcc:	d354      	bcc.n	8000e78 <__udivmoddi4+0x298>
 8000dce:	d051      	beq.n	8000e74 <__udivmoddi4+0x294>
 8000dd0:	2e00      	cmp	r6, #0
 8000dd2:	d069      	beq.n	8000ea8 <__udivmoddi4+0x2c8>
 8000dd4:	ebb1 050a 	subs.w	r5, r1, sl
 8000dd8:	eb64 0403 	sbc.w	r4, r4, r3
 8000ddc:	fa04 fc0c 	lsl.w	ip, r4, ip
 8000de0:	40fd      	lsrs	r5, r7
 8000de2:	40fc      	lsrs	r4, r7
 8000de4:	ea4c 0505 	orr.w	r5, ip, r5
 8000de8:	e9c6 5400 	strd	r5, r4, [r6]
 8000dec:	2700      	movs	r7, #0
 8000dee:	e747      	b.n	8000c80 <__udivmoddi4+0xa0>
 8000df0:	f1c2 0320 	rsb	r3, r2, #32
 8000df4:	fa20 f703 	lsr.w	r7, r0, r3
 8000df8:	4095      	lsls	r5, r2
 8000dfa:	fa01 f002 	lsl.w	r0, r1, r2
 8000dfe:	fa21 f303 	lsr.w	r3, r1, r3
 8000e02:	ea4f 4e15 	mov.w	lr, r5, lsr #16
 8000e06:	4338      	orrs	r0, r7
 8000e08:	0c01      	lsrs	r1, r0, #16
 8000e0a:	fbb3 f7fe 	udiv	r7, r3, lr
 8000e0e:	fa1f f885 	uxth.w	r8, r5
 8000e12:	fb0e 3317 	mls	r3, lr, r7, r3
 8000e16:	ea41 4103 	orr.w	r1, r1, r3, lsl #16
 8000e1a:	fb07 f308 	mul.w	r3, r7, r8
 8000e1e:	428b      	cmp	r3, r1
 8000e20:	fa04 f402 	lsl.w	r4, r4, r2
 8000e24:	d907      	bls.n	8000e36 <__udivmoddi4+0x256>
 8000e26:	1869      	adds	r1, r5, r1
 8000e28:	f107 3cff 	add.w	ip, r7, #4294967295
 8000e2c:	d22f      	bcs.n	8000e8e <__udivmoddi4+0x2ae>
 8000e2e:	428b      	cmp	r3, r1
 8000e30:	d92d      	bls.n	8000e8e <__udivmoddi4+0x2ae>
 8000e32:	3f02      	subs	r7, #2
 8000e34:	4429      	add	r1, r5
 8000e36:	1acb      	subs	r3, r1, r3
 8000e38:	b281      	uxth	r1, r0
 8000e3a:	fbb3 f0fe 	udiv	r0, r3, lr
 8000e3e:	fb0e 3310 	mls	r3, lr, r0, r3
 8000e42:	ea41 4103 	orr.w	r1, r1, r3, lsl #16
 8000e46:	fb00 f308 	mul.w	r3, r0, r8
 8000e4a:	428b      	cmp	r3, r1
 8000e4c:	d907      	bls.n	8000e5e <__udivmoddi4+0x27e>
 8000e4e:	1869      	adds	r1, r5, r1
 8000e50:	f100 3cff 	add.w	ip, r0, #4294967295
 8000e54:	d217      	bcs.n	8000e86 <__udivmoddi4+0x2a6>
 8000e56:	428b      	cmp	r3, r1
 8000e58:	d915      	bls.n	8000e86 <__udivmoddi4+0x2a6>
 8000e5a:	3802      	subs	r0, #2
 8000e5c:	4429      	add	r1, r5
 8000e5e:	1ac9      	subs	r1, r1, r3
 8000e60:	ea40 4707 	orr.w	r7, r0, r7, lsl #16
 8000e64:	e73b      	b.n	8000cde <__udivmoddi4+0xfe>
 8000e66:	4637      	mov	r7, r6
 8000e68:	4630      	mov	r0, r6
 8000e6a:	e709      	b.n	8000c80 <__udivmoddi4+0xa0>
 8000e6c:	4607      	mov	r7, r0
 8000e6e:	e6e7      	b.n	8000c40 <__udivmoddi4+0x60>
 8000e70:	4618      	mov	r0, r3
 8000e72:	e6fb      	b.n	8000c6c <__udivmoddi4+0x8c>
 8000e74:	4541      	cmp	r1, r8
 8000e76:	d2ab      	bcs.n	8000dd0 <__udivmoddi4+0x1f0>
 8000e78:	ebb8 0a02 	subs.w	sl, r8, r2
 8000e7c:	eb69 020e 	sbc.w	r2, r9, lr
 8000e80:	3801      	subs	r0, #1
 8000e82:	4613      	mov	r3, r2
 8000e84:	e7a4      	b.n	8000dd0 <__udivmoddi4+0x1f0>
 8000e86:	4660      	mov	r0, ip
 8000e88:	e7e9      	b.n	8000e5e <__udivmoddi4+0x27e>
 8000e8a:	4618      	mov	r0, r3
 8000e8c:	e795      	b.n	8000dba <__udivmoddi4+0x1da>
 8000e8e:	4667      	mov	r7, ip
 8000e90:	e7d1      	b.n	8000e36 <__udivmoddi4+0x256>
 8000e92:	4681      	mov	r9, r0
 8000e94:	e77c      	b.n	8000d90 <__udivmoddi4+0x1b0>
 8000e96:	3802      	subs	r0, #2
 8000e98:	442c      	add	r4, r5
 8000e9a:	e747      	b.n	8000d2c <__udivmoddi4+0x14c>
 8000e9c:	f1ac 0c02 	sub.w	ip, ip, #2
 8000ea0:	442b      	add	r3, r5
 8000ea2:	e72f      	b.n	8000d04 <__udivmoddi4+0x124>
 8000ea4:	4638      	mov	r0, r7
 8000ea6:	e708      	b.n	8000cba <__udivmoddi4+0xda>
 8000ea8:	4637      	mov	r7, r6
 8000eaa:	e6e9      	b.n	8000c80 <__udivmoddi4+0xa0>

08000eac <__aeabi_idiv0>:
 8000eac:	4770      	bx	lr
 8000eae:	bf00      	nop

08000eb0 <_Z18SystemClock_Configv>:
 8000eb0:	b510      	push	{r4, lr}
 8000eb2:	b094      	sub	sp, #80	; 0x50
 8000eb4:	2210      	movs	r2, #16
 8000eb6:	2100      	movs	r1, #0
 8000eb8:	a80a      	add	r0, sp, #40	; 0x28
 8000eba:	f003 fd21 	bl	8004900 <memset>
 8000ebe:	2214      	movs	r2, #20
 8000ec0:	2100      	movs	r1, #0
 8000ec2:	a803      	add	r0, sp, #12
 8000ec4:	f003 fd1c 	bl	8004900 <memset>
 8000ec8:	2100      	movs	r1, #0
 8000eca:	4b1f      	ldr	r3, [pc, #124]	; (8000f48 <_Z18SystemClock_Configv+0x98>)
 8000ecc:	9101      	str	r1, [sp, #4]
 8000ece:	6c1a      	ldr	r2, [r3, #64]	; 0x40
 8000ed0:	f042 5280 	orr.w	r2, r2, #268435456	; 0x10000000
 8000ed4:	641a      	str	r2, [r3, #64]	; 0x40
 8000ed6:	6c1b      	ldr	r3, [r3, #64]	; 0x40
 8000ed8:	f003 5380 	and.w	r3, r3, #268435456	; 0x10000000
 8000edc:	9301      	str	r3, [sp, #4]
 8000ede:	9b01      	ldr	r3, [sp, #4]
 8000ee0:	4b1a      	ldr	r3, [pc, #104]	; (8000f4c <_Z18SystemClock_Configv+0x9c>)
 8000ee2:	9102      	str	r1, [sp, #8]
 8000ee4:	681a      	ldr	r2, [r3, #0]
 8000ee6:	f442 4240 	orr.w	r2, r2, #49152	; 0xc000
 8000eea:	601a      	str	r2, [r3, #0]
 8000eec:	681b      	ldr	r3, [r3, #0]
 8000eee:	f403 4340 	and.w	r3, r3, #49152	; 0xc000
 8000ef2:	9302      	str	r3, [sp, #8]
 8000ef4:	9b02      	ldr	r3, [sp, #8]
 8000ef6:	2201      	movs	r2, #1
 8000ef8:	f44f 3380 	mov.w	r3, #65536	; 0x10000
 8000efc:	2402      	movs	r4, #2
 8000efe:	e9cd 2308 	strd	r2, r3, [sp, #32]
 8000f02:	f44f 0380 	mov.w	r3, #4194304	; 0x400000
 8000f06:	e9cd 430e 	strd	r4, r3, [sp, #56]	; 0x38
 8000f0a:	2108      	movs	r1, #8
 8000f0c:	2364      	movs	r3, #100	; 0x64
 8000f0e:	e9cd 1310 	strd	r1, r3, [sp, #64]	; 0x40
 8000f12:	a808      	add	r0, sp, #32
 8000f14:	2304      	movs	r3, #4
 8000f16:	9412      	str	r4, [sp, #72]	; 0x48
 8000f18:	9313      	str	r3, [sp, #76]	; 0x4c
 8000f1a:	f001 f8c5 	bl	80020a8 <HAL_RCC_OscConfig>
 8000f1e:	b108      	cbz	r0, 8000f24 <_Z18SystemClock_Configv+0x74>
 8000f20:	b672      	cpsid	i
 8000f22:	e7fe      	b.n	8000f22 <_Z18SystemClock_Configv+0x72>
 8000f24:	230f      	movs	r3, #15
 8000f26:	e9cd 3403 	strd	r3, r4, [sp, #12]
 8000f2a:	f44f 5380 	mov.w	r3, #4096	; 0x1000
 8000f2e:	9005      	str	r0, [sp, #20]
 8000f30:	e9cd 3006 	strd	r3, r0, [sp, #24]
 8000f34:	2103      	movs	r1, #3
 8000f36:	a803      	add	r0, sp, #12
 8000f38:	f001 fa82 	bl	8002440 <HAL_RCC_ClockConfig>
 8000f3c:	b108      	cbz	r0, 8000f42 <_Z18SystemClock_Configv+0x92>
 8000f3e:	b672      	cpsid	i
 8000f40:	e7fe      	b.n	8000f40 <_Z18SystemClock_Configv+0x90>
 8000f42:	b014      	add	sp, #80	; 0x50
 8000f44:	bd10      	pop	{r4, pc}
 8000f46:	bf00      	nop
 8000f48:	40023800 	.word	0x40023800
 8000f4c:	40007000 	.word	0x40007000

08000f50 <main>:
 8000f50:	b580      	push	{r7, lr}
 8000f52:	b08e      	sub	sp, #56	; 0x38
 8000f54:	2400      	movs	r4, #0
 8000f56:	4dae      	ldr	r5, [pc, #696]	; (8001210 <main+0x2c0>)
 8000f58:	4fae      	ldr	r7, [pc, #696]	; (8001214 <main+0x2c4>)
 8000f5a:	f000 fbe7 	bl	800172c <HAL_Init>
 8000f5e:	f7ff ffa7 	bl	8000eb0 <_Z18SystemClock_Configv>
 8000f62:	2214      	movs	r2, #20
 8000f64:	2100      	movs	r1, #0
 8000f66:	a809      	add	r0, sp, #36	; 0x24
 8000f68:	f003 fcca 	bl	8004900 <memset>
 8000f6c:	9401      	str	r4, [sp, #4]
 8000f6e:	6b2b      	ldr	r3, [r5, #48]	; 0x30
 8000f70:	48a9      	ldr	r0, [pc, #676]	; (8001218 <main+0x2c8>)
 8000f72:	f043 0310 	orr.w	r3, r3, #16
 8000f76:	632b      	str	r3, [r5, #48]	; 0x30
 8000f78:	6b2b      	ldr	r3, [r5, #48]	; 0x30
 8000f7a:	f003 0310 	and.w	r3, r3, #16
 8000f7e:	9301      	str	r3, [sp, #4]
 8000f80:	9b01      	ldr	r3, [sp, #4]
 8000f82:	9402      	str	r4, [sp, #8]
 8000f84:	6b2b      	ldr	r3, [r5, #48]	; 0x30
 8000f86:	f043 0380 	orr.w	r3, r3, #128	; 0x80
 8000f8a:	632b      	str	r3, [r5, #48]	; 0x30
 8000f8c:	6b2b      	ldr	r3, [r5, #48]	; 0x30
 8000f8e:	f003 0380 	and.w	r3, r3, #128	; 0x80
 8000f92:	9302      	str	r3, [sp, #8]
 8000f94:	9b02      	ldr	r3, [sp, #8]
 8000f96:	9403      	str	r4, [sp, #12]
 8000f98:	6b2b      	ldr	r3, [r5, #48]	; 0x30
 8000f9a:	f043 0301 	orr.w	r3, r3, #1
 8000f9e:	632b      	str	r3, [r5, #48]	; 0x30
 8000fa0:	6b2b      	ldr	r3, [r5, #48]	; 0x30
 8000fa2:	f003 0301 	and.w	r3, r3, #1
 8000fa6:	9303      	str	r3, [sp, #12]
 8000fa8:	9b03      	ldr	r3, [sp, #12]
 8000faa:	9404      	str	r4, [sp, #16]
 8000fac:	6b2b      	ldr	r3, [r5, #48]	; 0x30
 8000fae:	f043 0304 	orr.w	r3, r3, #4
 8000fb2:	632b      	str	r3, [r5, #48]	; 0x30
 8000fb4:	6b2b      	ldr	r3, [r5, #48]	; 0x30
 8000fb6:	f003 0304 	and.w	r3, r3, #4
 8000fba:	9304      	str	r3, [sp, #16]
 8000fbc:	9b04      	ldr	r3, [sp, #16]
 8000fbe:	9405      	str	r4, [sp, #20]
 8000fc0:	6b2b      	ldr	r3, [r5, #48]	; 0x30
 8000fc2:	f043 0302 	orr.w	r3, r3, #2
 8000fc6:	632b      	str	r3, [r5, #48]	; 0x30
 8000fc8:	6b2b      	ldr	r3, [r5, #48]	; 0x30
 8000fca:	f003 0302 	and.w	r3, r3, #2
 8000fce:	9305      	str	r3, [sp, #20]
 8000fd0:	9b05      	ldr	r3, [sp, #20]
 8000fd2:	9406      	str	r4, [sp, #24]
 8000fd4:	6b2b      	ldr	r3, [r5, #48]	; 0x30
 8000fd6:	f043 0308 	orr.w	r3, r3, #8
 8000fda:	632b      	str	r3, [r5, #48]	; 0x30
 8000fdc:	6b2b      	ldr	r3, [r5, #48]	; 0x30
 8000fde:	f003 0308 	and.w	r3, r3, #8
 8000fe2:	9306      	str	r3, [sp, #24]
 8000fe4:	4622      	mov	r2, r4
 8000fe6:	217f      	movs	r1, #127	; 0x7f
 8000fe8:	9b06      	ldr	r3, [sp, #24]
 8000fea:	f000 ffab 	bl	8001f44 <HAL_GPIO_WritePin>
 8000fee:	4622      	mov	r2, r4
 8000ff0:	f64f 01ff 	movw	r1, #63743	; 0xf8ff
 8000ff4:	4889      	ldr	r0, [pc, #548]	; (800121c <main+0x2cc>)
 8000ff6:	f000 ffa5 	bl	8001f44 <HAL_GPIO_WritePin>
 8000ffa:	4622      	mov	r2, r4
 8000ffc:	f44f 51de 	mov.w	r1, #7104	; 0x1bc0
 8001000:	4887      	ldr	r0, [pc, #540]	; (8001220 <main+0x2d0>)
 8001002:	f000 ff9f 	bl	8001f44 <HAL_GPIO_WritePin>
 8001006:	4622      	mov	r2, r4
 8001008:	f44f 714c 	mov.w	r1, #816	; 0x330
 800100c:	4885      	ldr	r0, [pc, #532]	; (8001224 <main+0x2d4>)
 800100e:	f000 ff99 	bl	8001f44 <HAL_GPIO_WritePin>
 8001012:	2601      	movs	r6, #1
 8001014:	237f      	movs	r3, #127	; 0x7f
 8001016:	a909      	add	r1, sp, #36	; 0x24
 8001018:	487f      	ldr	r0, [pc, #508]	; (8001218 <main+0x2c8>)
 800101a:	e9cd 3609 	strd	r3, r6, [sp, #36]	; 0x24
 800101e:	e9cd 440b 	strd	r4, r4, [sp, #44]	; 0x2c
 8001022:	f000 fec1 	bl	8001da8 <HAL_GPIO_Init>
 8001026:	f44f 6301 	mov.w	r3, #2064	; 0x810
 800102a:	a909      	add	r1, sp, #36	; 0x24
 800102c:	487e      	ldr	r0, [pc, #504]	; (8001228 <main+0x2d8>)
 800102e:	940b      	str	r4, [sp, #44]	; 0x2c
 8001030:	e9cd 3409 	strd	r3, r4, [sp, #36]	; 0x24
 8001034:	f000 feb8 	bl	8001da8 <HAL_GPIO_Init>
 8001038:	2330      	movs	r3, #48	; 0x30
 800103a:	a909      	add	r1, sp, #36	; 0x24
 800103c:	4878      	ldr	r0, [pc, #480]	; (8001220 <main+0x2d0>)
 800103e:	940b      	str	r4, [sp, #44]	; 0x2c
 8001040:	e9cd 3409 	strd	r3, r4, [sp, #36]	; 0x24
 8001044:	f000 feb0 	bl	8001da8 <HAL_GPIO_Init>
 8001048:	f241 0301 	movw	r3, #4097	; 0x1001
 800104c:	a909      	add	r1, sp, #36	; 0x24
 800104e:	4875      	ldr	r0, [pc, #468]	; (8001224 <main+0x2d4>)
 8001050:	940b      	str	r4, [sp, #44]	; 0x2c
 8001052:	e9cd 3409 	strd	r3, r4, [sp, #36]	; 0x24
 8001056:	f000 fea7 	bl	8001da8 <HAL_GPIO_Init>
 800105a:	f44f 4360 	mov.w	r3, #57344	; 0xe000
 800105e:	a909      	add	r1, sp, #36	; 0x24
 8001060:	486d      	ldr	r0, [pc, #436]	; (8001218 <main+0x2c8>)
 8001062:	940b      	str	r4, [sp, #44]	; 0x2c
 8001064:	e9cd 3409 	strd	r3, r4, [sp, #36]	; 0x24
 8001068:	f000 fe9e 	bl	8001da8 <HAL_GPIO_Init>
 800106c:	f44f 63e0 	mov.w	r3, #1792	; 0x700
 8001070:	a909      	add	r1, sp, #36	; 0x24
 8001072:	486a      	ldr	r0, [pc, #424]	; (800121c <main+0x2cc>)
 8001074:	940b      	str	r4, [sp, #44]	; 0x2c
 8001076:	e9cd 3409 	strd	r3, r4, [sp, #36]	; 0x24
 800107a:	f000 fe95 	bl	8001da8 <HAL_GPIO_Init>
 800107e:	f64f 03ff 	movw	r3, #63743	; 0xf8ff
 8001082:	a909      	add	r1, sp, #36	; 0x24
 8001084:	4865      	ldr	r0, [pc, #404]	; (800121c <main+0x2cc>)
 8001086:	e9cd 3609 	strd	r3, r6, [sp, #36]	; 0x24
 800108a:	e9cd 440b 	strd	r4, r4, [sp, #44]	; 0x2c
 800108e:	f000 fe8b 	bl	8001da8 <HAL_GPIO_Init>
 8001092:	f44f 53de 	mov.w	r3, #7104	; 0x1bc0
 8001096:	a909      	add	r1, sp, #36	; 0x24
 8001098:	4861      	ldr	r0, [pc, #388]	; (8001220 <main+0x2d0>)
 800109a:	e9cd 3609 	strd	r3, r6, [sp, #36]	; 0x24
 800109e:	e9cd 440b 	strd	r4, r4, [sp, #44]	; 0x2c
 80010a2:	f000 fe81 	bl	8001da8 <HAL_GPIO_Init>
 80010a6:	f44f 734c 	mov.w	r3, #816	; 0x330
 80010aa:	a909      	add	r1, sp, #36	; 0x24
 80010ac:	485d      	ldr	r0, [pc, #372]	; (8001224 <main+0x2d4>)
 80010ae:	e9cd 3609 	strd	r3, r6, [sp, #36]	; 0x24
 80010b2:	e9cd 440b 	strd	r4, r4, [sp, #44]	; 0x2c
 80010b6:	f000 fe77 	bl	8001da8 <HAL_GPIO_Init>
 80010ba:	9400      	str	r4, [sp, #0]
 80010bc:	6b2b      	ldr	r3, [r5, #48]	; 0x30
 80010be:	f443 0380 	orr.w	r3, r3, #4194304	; 0x400000
 80010c2:	632b      	str	r3, [r5, #48]	; 0x30
 80010c4:	6b2b      	ldr	r3, [r5, #48]	; 0x30
 80010c6:	4d59      	ldr	r5, [pc, #356]	; (800122c <main+0x2dc>)
 80010c8:	f403 0380 	and.w	r3, r3, #4194304	; 0x400000
 80010cc:	4622      	mov	r2, r4
 80010ce:	4621      	mov	r1, r4
 80010d0:	9300      	str	r3, [sp, #0]
 80010d2:	203a      	movs	r0, #58	; 0x3a
 80010d4:	9b00      	ldr	r3, [sp, #0]
 80010d6:	f000 fcab 	bl	8001a30 <HAL_NVIC_SetPriority>
 80010da:	203a      	movs	r0, #58	; 0x3a
 80010dc:	f000 fcdc 	bl	8001a98 <HAL_NVIC_EnableIRQ>
 80010e0:	2210      	movs	r2, #16
 80010e2:	4621      	mov	r1, r4
 80010e4:	a809      	add	r0, sp, #36	; 0x24
 80010e6:	f003 fc0b 	bl	8004900 <memset>
 80010ea:	f44f 3380 	mov.w	r3, #65536	; 0x10000
 80010ee:	e9c5 7300 	strd	r7, r3, [r5]
 80010f2:	4628      	mov	r0, r5
 80010f4:	4b4e      	ldr	r3, [pc, #312]	; (8001230 <main+0x2e0>)
 80010f6:	60ac      	str	r4, [r5, #8]
 80010f8:	612c      	str	r4, [r5, #16]
 80010fa:	762c      	strb	r4, [r5, #24]
 80010fc:	f885 4020 	strb.w	r4, [r5, #32]
 8001100:	62ec      	str	r4, [r5, #44]	; 0x2c
 8001102:	62ab      	str	r3, [r5, #40]	; 0x28
 8001104:	60ec      	str	r4, [r5, #12]
 8001106:	61ee      	str	r6, [r5, #28]
 8001108:	f885 4030 	strb.w	r4, [r5, #48]	; 0x30
 800110c:	616e      	str	r6, [r5, #20]
 800110e:	f000 fb39 	bl	8001784 <HAL_ADC_Init>
 8001112:	b108      	cbz	r0, 8001118 <main+0x1c8>
 8001114:	b672      	cpsid	i
 8001116:	e7fe      	b.n	8001116 <main+0x1c6>
 8001118:	e9cd 0609 	strd	r0, r6, [sp, #36]	; 0x24
 800111c:	900b      	str	r0, [sp, #44]	; 0x2c
 800111e:	a909      	add	r1, sp, #36	; 0x24
 8001120:	4628      	mov	r0, r5
 8001122:	f000 fbd5 	bl	80018d0 <HAL_ADC_ConfigChannel>
 8001126:	b108      	cbz	r0, 800112c <main+0x1dc>
 8001128:	b672      	cpsid	i
 800112a:	e7fe      	b.n	800112a <main+0x1da>
 800112c:	4b41      	ldr	r3, [pc, #260]	; (8001234 <main+0x2e4>)
 800112e:	4d42      	ldr	r5, [pc, #264]	; (8001238 <main+0x2e8>)
 8001130:	6298      	str	r0, [r3, #40]	; 0x28
 8001132:	f44f 7282 	mov.w	r2, #260	; 0x104
 8001136:	e9c3 5200 	strd	r5, r2, [r3]
 800113a:	f44f 7200 	mov.w	r2, #512	; 0x200
 800113e:	e9c3 0002 	strd	r0, r0, [r3, #8]
 8001142:	e9c3 0004 	strd	r0, r0, [r3, #16]
 8001146:	e9c3 2006 	strd	r2, r0, [r3, #24]
 800114a:	e9c3 0008 	strd	r0, r0, [r3, #32]
 800114e:	260a      	movs	r6, #10
 8001150:	4618      	mov	r0, r3
 8001152:	62de      	str	r6, [r3, #44]	; 0x2c
 8001154:	f001 fa2e 	bl	80025b4 <HAL_SPI_Init>
 8001158:	b108      	cbz	r0, 800115e <main+0x20e>
 800115a:	b672      	cpsid	i
 800115c:	e7fe      	b.n	800115c <main+0x20c>
 800115e:	4b37      	ldr	r3, [pc, #220]	; (800123c <main+0x2ec>)
 8001160:	4c37      	ldr	r4, [pc, #220]	; (8001240 <main+0x2f0>)
 8001162:	6118      	str	r0, [r3, #16]
 8001164:	f44f 32e1 	mov.w	r2, #115200	; 0x1c200
 8001168:	e9c3 4200 	strd	r4, r2, [r3]
 800116c:	220c      	movs	r2, #12
 800116e:	e9c3 0002 	strd	r0, r0, [r3, #8]
 8001172:	e9c3 2005 	strd	r2, r0, [r3, #20]
 8001176:	61d8      	str	r0, [r3, #28]
 8001178:	4618      	mov	r0, r3
 800117a:	f001 fd4d 	bl	8002c18 <HAL_UART_Init>
 800117e:	b108      	cbz	r0, 8001184 <main+0x234>
 8001180:	b672      	cpsid	i
 8001182:	e7fe      	b.n	8001182 <main+0x232>
 8001184:	4b2f      	ldr	r3, [pc, #188]	; (8001244 <main+0x2f4>)
 8001186:	4930      	ldr	r1, [pc, #192]	; (8001248 <main+0x2f8>)
 8001188:	4a30      	ldr	r2, [pc, #192]	; (800124c <main+0x2fc>)
 800118a:	6218      	str	r0, [r3, #32]
 800118c:	e9c3 1200 	strd	r1, r2, [r3]
 8001190:	f44f 4280 	mov.w	r2, #16384	; 0x4000
 8001194:	e9c3 0002 	strd	r0, r0, [r3, #8]
 8001198:	e9c3 2004 	strd	r2, r0, [r3, #16]
 800119c:	e9c3 0006 	strd	r0, r0, [r3, #24]
 80011a0:	4618      	mov	r0, r3
 80011a2:	f000 fed5 	bl	8001f50 <HAL_I2C_Init>
 80011a6:	4605      	mov	r5, r0
 80011a8:	b108      	cbz	r0, 80011ae <main+0x25e>
 80011aa:	b672      	cpsid	i
 80011ac:	e7fe      	b.n	80011ac <main+0x25c>
 80011ae:	4c28      	ldr	r4, [pc, #160]	; (8001250 <main+0x300>)
 80011b0:	4601      	mov	r1, r0
 80011b2:	2210      	movs	r2, #16
 80011b4:	a809      	add	r0, sp, #36	; 0x24
 80011b6:	f003 fba3 	bl	8004900 <memset>
 80011ba:	f04f 0863 	mov.w	r8, #99	; 0x63
 80011be:	f04f 4380 	mov.w	r3, #1073741824	; 0x40000000
 80011c2:	e9c4 3800 	strd	r3, r8, [r4]
 80011c6:	f04f 0980 	mov.w	r9, #128	; 0x80
 80011ca:	f04f 33ff 	mov.w	r3, #4294967295
 80011ce:	4620      	mov	r0, r4
 80011d0:	e9cd 5507 	strd	r5, r5, [sp, #28]
 80011d4:	60a5      	str	r5, [r4, #8]
 80011d6:	e9c4 3503 	strd	r3, r5, [r4, #12]
 80011da:	f8c4 9018 	str.w	r9, [r4, #24]
 80011de:	f001 fbb7 	bl	8002950 <HAL_TIM_Base_Init>
 80011e2:	b108      	cbz	r0, 80011e8 <main+0x298>
 80011e4:	b672      	cpsid	i
 80011e6:	e7fe      	b.n	80011e6 <main+0x296>
 80011e8:	f44f 5780 	mov.w	r7, #4096	; 0x1000
 80011ec:	a909      	add	r1, sp, #36	; 0x24
 80011ee:	4620      	mov	r0, r4
 80011f0:	9709      	str	r7, [sp, #36]	; 0x24
 80011f2:	f001 fbd1 	bl	8002998 <HAL_TIM_ConfigClockSource>
 80011f6:	b108      	cbz	r0, 80011fc <main+0x2ac>
 80011f8:	b672      	cpsid	i
 80011fa:	e7fe      	b.n	80011fa <main+0x2aa>
 80011fc:	e9cd 0007 	strd	r0, r0, [sp, #28]
 8001200:	a907      	add	r1, sp, #28
 8001202:	4620      	mov	r0, r4
 8001204:	f001 fc5c 	bl	8002ac0 <HAL_TIMEx_MasterConfigSynchronization>
 8001208:	4605      	mov	r5, r0
 800120a:	b318      	cbz	r0, 8001254 <main+0x304>
 800120c:	b672      	cpsid	i
 800120e:	e7fe      	b.n	800120e <main+0x2be>
 8001210:	40023800 	.word	0x40023800
 8001214:	40012000 	.word	0x40012000
 8001218:	40021000 	.word	0x40021000
 800121c:	40020c00 	.word	0x40020c00
 8001220:	40020800 	.word	0x40020800
 8001224:	40020400 	.word	0x40020400
 8001228:	40020000 	.word	0x40020000
 800122c:	200000b0 	.word	0x200000b0
 8001230:	0f000001 	.word	0x0f000001
 8001234:	200001ac 	.word	0x200001ac
 8001238:	40013000 	.word	0x40013000
 800123c:	200002c4 	.word	0x200002c4
 8001240:	40011000 	.word	0x40011000
 8001244:	20000158 	.word	0x20000158
 8001248:	40005400 	.word	0x40005400
 800124c:	000186a0 	.word	0x000186a0
 8001250:	20000204 	.word	0x20000204
 8001254:	4c35      	ldr	r4, [pc, #212]	; (800132c <main+0x3dc>)
 8001256:	4601      	mov	r1, r0
 8001258:	2210      	movs	r2, #16
 800125a:	a809      	add	r0, sp, #36	; 0x24
 800125c:	f003 fb50 	bl	8004900 <memset>
 8001260:	4b33      	ldr	r3, [pc, #204]	; (8001330 <main+0x3e0>)
 8001262:	6125      	str	r5, [r4, #16]
 8001264:	4620      	mov	r0, r4
 8001266:	e9cd 5507 	strd	r5, r5, [sp, #28]
 800126a:	e9c4 5602 	strd	r5, r6, [r4, #8]
 800126e:	e9c4 3800 	strd	r3, r8, [r4]
 8001272:	f8c4 9018 	str.w	r9, [r4, #24]
 8001276:	f001 fb6b 	bl	8002950 <HAL_TIM_Base_Init>
 800127a:	4625      	mov	r5, r4
 800127c:	b108      	cbz	r0, 8001282 <main+0x332>
 800127e:	b672      	cpsid	i
 8001280:	e7fe      	b.n	8001280 <main+0x330>
 8001282:	a909      	add	r1, sp, #36	; 0x24
 8001284:	4620      	mov	r0, r4
 8001286:	9709      	str	r7, [sp, #36]	; 0x24
 8001288:	f001 fb86 	bl	8002998 <HAL_TIM_ConfigClockSource>
 800128c:	b108      	cbz	r0, 8001292 <main+0x342>
 800128e:	b672      	cpsid	i
 8001290:	e7fe      	b.n	8001290 <main+0x340>
 8001292:	2300      	movs	r3, #0
 8001294:	a907      	add	r1, sp, #28
 8001296:	4825      	ldr	r0, [pc, #148]	; (800132c <main+0x3dc>)
 8001298:	e9cd 3307 	strd	r3, r3, [sp, #28]
 800129c:	f001 fc10 	bl	8002ac0 <HAL_TIMEx_MasterConfigSynchronization>
 80012a0:	4606      	mov	r6, r0
 80012a2:	b108      	cbz	r0, 80012a8 <main+0x358>
 80012a4:	b672      	cpsid	i
 80012a6:	e7fe      	b.n	80012a6 <main+0x356>
 80012a8:	2210      	movs	r2, #16
 80012aa:	4601      	mov	r1, r0
 80012ac:	a809      	add	r0, sp, #36	; 0x24
 80012ae:	f003 fb27 	bl	8004900 <memset>
 80012b2:	4c20      	ldr	r4, [pc, #128]	; (8001334 <main+0x3e4>)
 80012b4:	4a20      	ldr	r2, [pc, #128]	; (8001338 <main+0x3e8>)
 80012b6:	60a6      	str	r6, [r4, #8]
 80012b8:	2363      	movs	r3, #99	; 0x63
 80012ba:	e9c4 2300 	strd	r2, r3, [r4]
 80012be:	f44f 737a 	mov.w	r3, #1000	; 0x3e8
 80012c2:	e9c4 3603 	strd	r3, r6, [r4, #12]
 80012c6:	4620      	mov	r0, r4
 80012c8:	2380      	movs	r3, #128	; 0x80
 80012ca:	e9cd 6607 	strd	r6, r6, [sp, #28]
 80012ce:	61a3      	str	r3, [r4, #24]
 80012d0:	f001 fb3e 	bl	8002950 <HAL_TIM_Base_Init>
 80012d4:	b108      	cbz	r0, 80012da <main+0x38a>
 80012d6:	b672      	cpsid	i
 80012d8:	e7fe      	b.n	80012d8 <main+0x388>
 80012da:	f44f 5380 	mov.w	r3, #4096	; 0x1000
 80012de:	a909      	add	r1, sp, #36	; 0x24
 80012e0:	4620      	mov	r0, r4
 80012e2:	9309      	str	r3, [sp, #36]	; 0x24
 80012e4:	f001 fb58 	bl	8002998 <HAL_TIM_ConfigClockSource>
 80012e8:	b108      	cbz	r0, 80012ee <main+0x39e>
 80012ea:	b672      	cpsid	i
 80012ec:	e7fe      	b.n	80012ec <main+0x39c>
 80012ee:	e9cd 0007 	strd	r0, r0, [sp, #28]
 80012f2:	a907      	add	r1, sp, #28
 80012f4:	4620      	mov	r0, r4
 80012f6:	f001 fbe3 	bl	8002ac0 <HAL_TIMEx_MasterConfigSynchronization>
 80012fa:	b108      	cbz	r0, 8001300 <main+0x3b0>
 80012fc:	b672      	cpsid	i
 80012fe:	e7fe      	b.n	80012fe <main+0x3ae>
 8001300:	f002 f982 	bl	8003608 <_Z5setupv>
 8001304:	480d      	ldr	r0, [pc, #52]	; (800133c <main+0x3ec>)
 8001306:	f001 fa1d 	bl	8002744 <HAL_TIM_Base_Start_IT>
 800130a:	682b      	ldr	r3, [r5, #0]
 800130c:	4807      	ldr	r0, [pc, #28]	; (800132c <main+0x3dc>)
 800130e:	2218      	movs	r2, #24
 8001310:	62da      	str	r2, [r3, #44]	; 0x2c
 8001312:	f001 fa17 	bl	8002744 <HAL_TIM_Base_Start_IT>
 8001316:	6823      	ldr	r3, [r4, #0]
 8001318:	f240 32e7 	movw	r2, #999	; 0x3e7
 800131c:	62da      	str	r2, [r3, #44]	; 0x2c
 800131e:	4620      	mov	r0, r4
 8001320:	f001 fa10 	bl	8002744 <HAL_TIM_Base_Start_IT>
 8001324:	bf30      	wfi
 8001326:	f002 fabb 	bl	80038a0 <_Z4loopv>
 800132a:	e7fb      	b.n	8001324 <main+0x3d4>
 800132c:	20000244 	.word	0x20000244
 8001330:	40000400 	.word	0x40000400
 8001334:	20000284 	.word	0x20000284
 8001338:	40000800 	.word	0x40000800
 800133c:	20000204 	.word	0x20000204

08001340 <Error_Handler>:
 8001340:	b672      	cpsid	i
 8001342:	e7fe      	b.n	8001342 <Error_Handler+0x2>

08001344 <HAL_MspInit>:
 8001344:	b082      	sub	sp, #8
 8001346:	4b0c      	ldr	r3, [pc, #48]	; (8001378 <HAL_MspInit+0x34>)
 8001348:	2100      	movs	r1, #0
 800134a:	9100      	str	r1, [sp, #0]
 800134c:	6c5a      	ldr	r2, [r3, #68]	; 0x44
 800134e:	f442 4280 	orr.w	r2, r2, #16384	; 0x4000
 8001352:	645a      	str	r2, [r3, #68]	; 0x44
 8001354:	6c5a      	ldr	r2, [r3, #68]	; 0x44
 8001356:	f402 4280 	and.w	r2, r2, #16384	; 0x4000
 800135a:	9200      	str	r2, [sp, #0]
 800135c:	9a00      	ldr	r2, [sp, #0]
 800135e:	9101      	str	r1, [sp, #4]
 8001360:	6c1a      	ldr	r2, [r3, #64]	; 0x40
 8001362:	f042 5280 	orr.w	r2, r2, #268435456	; 0x10000000
 8001366:	641a      	str	r2, [r3, #64]	; 0x40
 8001368:	6c1b      	ldr	r3, [r3, #64]	; 0x40
 800136a:	f003 5380 	and.w	r3, r3, #268435456	; 0x10000000
 800136e:	9301      	str	r3, [sp, #4]
 8001370:	9b01      	ldr	r3, [sp, #4]
 8001372:	b002      	add	sp, #8
 8001374:	4770      	bx	lr
 8001376:	bf00      	nop
 8001378:	40023800 	.word	0x40023800

0800137c <HAL_ADC_MspInit>:
 800137c:	b510      	push	{r4, lr}
 800137e:	4604      	mov	r4, r0
 8001380:	b088      	sub	sp, #32
 8001382:	2214      	movs	r2, #20
 8001384:	2100      	movs	r1, #0
 8001386:	a803      	add	r0, sp, #12
 8001388:	f003 faba 	bl	8004900 <memset>
 800138c:	6822      	ldr	r2, [r4, #0]
 800138e:	4b12      	ldr	r3, [pc, #72]	; (80013d8 <HAL_ADC_MspInit+0x5c>)
 8001390:	429a      	cmp	r2, r3
 8001392:	d11e      	bne.n	80013d2 <HAL_ADC_MspInit+0x56>
 8001394:	f503 338c 	add.w	r3, r3, #71680	; 0x11800
 8001398:	2100      	movs	r1, #0
 800139a:	9101      	str	r1, [sp, #4]
 800139c:	6c5a      	ldr	r2, [r3, #68]	; 0x44
 800139e:	480f      	ldr	r0, [pc, #60]	; (80013dc <HAL_ADC_MspInit+0x60>)
 80013a0:	f442 7280 	orr.w	r2, r2, #256	; 0x100
 80013a4:	645a      	str	r2, [r3, #68]	; 0x44
 80013a6:	6c5a      	ldr	r2, [r3, #68]	; 0x44
 80013a8:	f402 7280 	and.w	r2, r2, #256	; 0x100
 80013ac:	9201      	str	r2, [sp, #4]
 80013ae:	9a01      	ldr	r2, [sp, #4]
 80013b0:	9102      	str	r1, [sp, #8]
 80013b2:	6b1a      	ldr	r2, [r3, #48]	; 0x30
 80013b4:	f042 0201 	orr.w	r2, r2, #1
 80013b8:	631a      	str	r2, [r3, #48]	; 0x30
 80013ba:	6b1b      	ldr	r3, [r3, #48]	; 0x30
 80013bc:	f003 0301 	and.w	r3, r3, #1
 80013c0:	9302      	str	r3, [sp, #8]
 80013c2:	9b02      	ldr	r3, [sp, #8]
 80013c4:	220f      	movs	r2, #15
 80013c6:	2303      	movs	r3, #3
 80013c8:	a903      	add	r1, sp, #12
 80013ca:	e9cd 2303 	strd	r2, r3, [sp, #12]
 80013ce:	f000 fceb 	bl	8001da8 <HAL_GPIO_Init>
 80013d2:	b008      	add	sp, #32
 80013d4:	bd10      	pop	{r4, pc}
 80013d6:	bf00      	nop
 80013d8:	40012000 	.word	0x40012000
 80013dc:	40020000 	.word	0x40020000

080013e0 <HAL_I2C_MspInit>:
 80013e0:	b530      	push	{r4, r5, lr}
 80013e2:	4604      	mov	r4, r0
 80013e4:	b089      	sub	sp, #36	; 0x24
 80013e6:	2214      	movs	r2, #20
 80013e8:	2100      	movs	r1, #0
 80013ea:	a803      	add	r0, sp, #12
 80013ec:	f003 fa88 	bl	8004900 <memset>
 80013f0:	6822      	ldr	r2, [r4, #0]
 80013f2:	4b14      	ldr	r3, [pc, #80]	; (8001444 <HAL_I2C_MspInit+0x64>)
 80013f4:	429a      	cmp	r2, r3
 80013f6:	d123      	bne.n	8001440 <HAL_I2C_MspInit+0x60>
 80013f8:	4c13      	ldr	r4, [pc, #76]	; (8001448 <HAL_I2C_MspInit+0x68>)
 80013fa:	4814      	ldr	r0, [pc, #80]	; (800144c <HAL_I2C_MspInit+0x6c>)
 80013fc:	2500      	movs	r5, #0
 80013fe:	9501      	str	r5, [sp, #4]
 8001400:	6b23      	ldr	r3, [r4, #48]	; 0x30
 8001402:	f043 0302 	orr.w	r3, r3, #2
 8001406:	6323      	str	r3, [r4, #48]	; 0x30
 8001408:	6b23      	ldr	r3, [r4, #48]	; 0x30
 800140a:	f003 0302 	and.w	r3, r3, #2
 800140e:	9301      	str	r3, [sp, #4]
 8001410:	9b01      	ldr	r3, [sp, #4]
 8001412:	22c0      	movs	r2, #192	; 0xc0
 8001414:	2312      	movs	r3, #18
 8001416:	e9cd 2303 	strd	r2, r3, [sp, #12]
 800141a:	2101      	movs	r1, #1
 800141c:	2303      	movs	r3, #3
 800141e:	e9cd 1305 	strd	r1, r3, [sp, #20]
 8001422:	2304      	movs	r3, #4
 8001424:	a903      	add	r1, sp, #12
 8001426:	9307      	str	r3, [sp, #28]
 8001428:	f000 fcbe 	bl	8001da8 <HAL_GPIO_Init>
 800142c:	9502      	str	r5, [sp, #8]
 800142e:	6c23      	ldr	r3, [r4, #64]	; 0x40
 8001430:	f443 1300 	orr.w	r3, r3, #2097152	; 0x200000
 8001434:	6423      	str	r3, [r4, #64]	; 0x40
 8001436:	6c23      	ldr	r3, [r4, #64]	; 0x40
 8001438:	f403 1300 	and.w	r3, r3, #2097152	; 0x200000
 800143c:	9302      	str	r3, [sp, #8]
 800143e:	9b02      	ldr	r3, [sp, #8]
 8001440:	b009      	add	sp, #36	; 0x24
 8001442:	bd30      	pop	{r4, r5, pc}
 8001444:	40005400 	.word	0x40005400
 8001448:	40023800 	.word	0x40023800
 800144c:	40020400 	.word	0x40020400

08001450 <HAL_SPI_MspInit>:
 8001450:	b510      	push	{r4, lr}
 8001452:	4604      	mov	r4, r0
 8001454:	b088      	sub	sp, #32
 8001456:	2214      	movs	r2, #20
 8001458:	2100      	movs	r1, #0
 800145a:	a803      	add	r0, sp, #12
 800145c:	f003 fa50 	bl	8004900 <memset>
 8001460:	6822      	ldr	r2, [r4, #0]
 8001462:	4b18      	ldr	r3, [pc, #96]	; (80014c4 <HAL_SPI_MspInit+0x74>)
 8001464:	429a      	cmp	r2, r3
 8001466:	d12a      	bne.n	80014be <HAL_SPI_MspInit+0x6e>
 8001468:	f503 3384 	add.w	r3, r3, #67584	; 0x10800
 800146c:	2400      	movs	r4, #0
 800146e:	9401      	str	r4, [sp, #4]
 8001470:	6c5a      	ldr	r2, [r3, #68]	; 0x44
 8001472:	4815      	ldr	r0, [pc, #84]	; (80014c8 <HAL_SPI_MspInit+0x78>)
 8001474:	f442 5280 	orr.w	r2, r2, #4096	; 0x1000
 8001478:	645a      	str	r2, [r3, #68]	; 0x44
 800147a:	6c5a      	ldr	r2, [r3, #68]	; 0x44
 800147c:	f402 5280 	and.w	r2, r2, #4096	; 0x1000
 8001480:	9201      	str	r2, [sp, #4]
 8001482:	9a01      	ldr	r2, [sp, #4]
 8001484:	9402      	str	r4, [sp, #8]
 8001486:	6b1a      	ldr	r2, [r3, #48]	; 0x30
 8001488:	f042 0201 	orr.w	r2, r2, #1
 800148c:	631a      	str	r2, [r3, #48]	; 0x30
 800148e:	6b1b      	ldr	r3, [r3, #48]	; 0x30
 8001490:	f003 0301 	and.w	r3, r3, #1
 8001494:	9302      	str	r3, [sp, #8]
 8001496:	22e0      	movs	r2, #224	; 0xe0
 8001498:	9b02      	ldr	r3, [sp, #8]
 800149a:	2302      	movs	r3, #2
 800149c:	e9cd 2303 	strd	r2, r3, [sp, #12]
 80014a0:	2103      	movs	r1, #3
 80014a2:	2305      	movs	r3, #5
 80014a4:	e9cd 1306 	strd	r1, r3, [sp, #24]
 80014a8:	a903      	add	r1, sp, #12
 80014aa:	f000 fc7d 	bl	8001da8 <HAL_GPIO_Init>
 80014ae:	2023      	movs	r0, #35	; 0x23
 80014b0:	4622      	mov	r2, r4
 80014b2:	4621      	mov	r1, r4
 80014b4:	f000 fabc 	bl	8001a30 <HAL_NVIC_SetPriority>
 80014b8:	2023      	movs	r0, #35	; 0x23
 80014ba:	f000 faed 	bl	8001a98 <HAL_NVIC_EnableIRQ>
 80014be:	b008      	add	sp, #32
 80014c0:	bd10      	pop	{r4, pc}
 80014c2:	bf00      	nop
 80014c4:	40013000 	.word	0x40013000
 80014c8:	40020000 	.word	0x40020000

080014cc <HAL_TIM_Base_MspInit>:
 80014cc:	b51f      	push	{r0, r1, r2, r3, r4, lr}
 80014ce:	6803      	ldr	r3, [r0, #0]
 80014d0:	f1b3 4f80 	cmp.w	r3, #1073741824	; 0x40000000
 80014d4:	d10e      	bne.n	80014f4 <HAL_TIM_Base_MspInit+0x28>
 80014d6:	2300      	movs	r3, #0
 80014d8:	9301      	str	r3, [sp, #4]
 80014da:	4b1d      	ldr	r3, [pc, #116]	; (8001550 <HAL_TIM_Base_MspInit+0x84>)
 80014dc:	6c1a      	ldr	r2, [r3, #64]	; 0x40
 80014de:	f042 0201 	orr.w	r2, r2, #1
 80014e2:	641a      	str	r2, [r3, #64]	; 0x40
 80014e4:	6c1b      	ldr	r3, [r3, #64]	; 0x40
 80014e6:	f003 0301 	and.w	r3, r3, #1
 80014ea:	9301      	str	r3, [sp, #4]
 80014ec:	9b01      	ldr	r3, [sp, #4]
 80014ee:	b005      	add	sp, #20
 80014f0:	f85d fb04 	ldr.w	pc, [sp], #4
 80014f4:	4a17      	ldr	r2, [pc, #92]	; (8001554 <HAL_TIM_Base_MspInit+0x88>)
 80014f6:	4293      	cmp	r3, r2
 80014f8:	d115      	bne.n	8001526 <HAL_TIM_Base_MspInit+0x5a>
 80014fa:	2200      	movs	r2, #0
 80014fc:	4b14      	ldr	r3, [pc, #80]	; (8001550 <HAL_TIM_Base_MspInit+0x84>)
 80014fe:	9202      	str	r2, [sp, #8]
 8001500:	6c19      	ldr	r1, [r3, #64]	; 0x40
 8001502:	f041 0102 	orr.w	r1, r1, #2
 8001506:	6419      	str	r1, [r3, #64]	; 0x40
 8001508:	6c1b      	ldr	r3, [r3, #64]	; 0x40
 800150a:	f003 0302 	and.w	r3, r3, #2
 800150e:	9302      	str	r3, [sp, #8]
 8001510:	201d      	movs	r0, #29
 8001512:	4611      	mov	r1, r2
 8001514:	9b02      	ldr	r3, [sp, #8]
 8001516:	f000 fa8b 	bl	8001a30 <HAL_NVIC_SetPriority>
 800151a:	201d      	movs	r0, #29
 800151c:	b005      	add	sp, #20
 800151e:	f85d eb04 	ldr.w	lr, [sp], #4
 8001522:	f000 bab9 	b.w	8001a98 <HAL_NVIC_EnableIRQ>
 8001526:	4a0c      	ldr	r2, [pc, #48]	; (8001558 <HAL_TIM_Base_MspInit+0x8c>)
 8001528:	4293      	cmp	r3, r2
 800152a:	d1e0      	bne.n	80014ee <HAL_TIM_Base_MspInit+0x22>
 800152c:	2200      	movs	r2, #0
 800152e:	4b08      	ldr	r3, [pc, #32]	; (8001550 <HAL_TIM_Base_MspInit+0x84>)
 8001530:	9203      	str	r2, [sp, #12]
 8001532:	6c19      	ldr	r1, [r3, #64]	; 0x40
 8001534:	f041 0104 	orr.w	r1, r1, #4
 8001538:	6419      	str	r1, [r3, #64]	; 0x40
 800153a:	6c1b      	ldr	r3, [r3, #64]	; 0x40
 800153c:	f003 0304 	and.w	r3, r3, #4
 8001540:	9303      	str	r3, [sp, #12]
 8001542:	201e      	movs	r0, #30
 8001544:	4611      	mov	r1, r2
 8001546:	9b03      	ldr	r3, [sp, #12]
 8001548:	f000 fa72 	bl	8001a30 <HAL_NVIC_SetPriority>
 800154c:	201e      	movs	r0, #30
 800154e:	e7e5      	b.n	800151c <HAL_TIM_Base_MspInit+0x50>
 8001550:	40023800 	.word	0x40023800
 8001554:	40000400 	.word	0x40000400
 8001558:	40000800 	.word	0x40000800

0800155c <HAL_UART_MspInit>:
 800155c:	b570      	push	{r4, r5, r6, lr}
 800155e:	4606      	mov	r6, r0
 8001560:	b088      	sub	sp, #32
 8001562:	2214      	movs	r2, #20
 8001564:	2100      	movs	r1, #0
 8001566:	a803      	add	r0, sp, #12
 8001568:	f003 f9ca 	bl	8004900 <memset>
 800156c:	6832      	ldr	r2, [r6, #0]
 800156e:	4b25      	ldr	r3, [pc, #148]	; (8001604 <HAL_UART_MspInit+0xa8>)
 8001570:	429a      	cmp	r2, r3
 8001572:	d145      	bne.n	8001600 <HAL_UART_MspInit+0xa4>
 8001574:	2500      	movs	r5, #0
 8001576:	f503 3394 	add.w	r3, r3, #75776	; 0x12800
 800157a:	9501      	str	r5, [sp, #4]
 800157c:	6c5a      	ldr	r2, [r3, #68]	; 0x44
 800157e:	4822      	ldr	r0, [pc, #136]	; (8001608 <HAL_UART_MspInit+0xac>)
 8001580:	4c22      	ldr	r4, [pc, #136]	; (800160c <HAL_UART_MspInit+0xb0>)
 8001582:	f042 0210 	orr.w	r2, r2, #16
 8001586:	645a      	str	r2, [r3, #68]	; 0x44
 8001588:	6c5a      	ldr	r2, [r3, #68]	; 0x44
 800158a:	f002 0210 	and.w	r2, r2, #16
 800158e:	9201      	str	r2, [sp, #4]
 8001590:	9a01      	ldr	r2, [sp, #4]
 8001592:	9502      	str	r5, [sp, #8]
 8001594:	6b1a      	ldr	r2, [r3, #48]	; 0x30
 8001596:	f042 0201 	orr.w	r2, r2, #1
 800159a:	631a      	str	r2, [r3, #48]	; 0x30
 800159c:	6b1b      	ldr	r3, [r3, #48]	; 0x30
 800159e:	f003 0301 	and.w	r3, r3, #1
 80015a2:	9302      	str	r3, [sp, #8]
 80015a4:	9b02      	ldr	r3, [sp, #8]
 80015a6:	f44f 62c0 	mov.w	r2, #1536	; 0x600
 80015aa:	2302      	movs	r3, #2
 80015ac:	e9cd 2303 	strd	r2, r3, [sp, #12]
 80015b0:	2103      	movs	r1, #3
 80015b2:	2307      	movs	r3, #7
 80015b4:	e9cd 1306 	strd	r1, r3, [sp, #24]
 80015b8:	a903      	add	r1, sp, #12
 80015ba:	f000 fbf5 	bl	8001da8 <HAL_GPIO_Init>
 80015be:	4814      	ldr	r0, [pc, #80]	; (8001610 <HAL_UART_MspInit+0xb4>)
 80015c0:	61a5      	str	r5, [r4, #24]
 80015c2:	f04f 6300 	mov.w	r3, #134217728	; 0x8000000
 80015c6:	e9c4 0300 	strd	r0, r3, [r4]
 80015ca:	f44f 6380 	mov.w	r3, #1024	; 0x400
 80015ce:	e9c4 3504 	strd	r3, r5, [r4, #16]
 80015d2:	4620      	mov	r0, r4
 80015d4:	f44f 7380 	mov.w	r3, #256	; 0x100
 80015d8:	e9c4 5502 	strd	r5, r5, [r4, #8]
 80015dc:	e9c4 3507 	strd	r3, r5, [r4, #28]
 80015e0:	6265      	str	r5, [r4, #36]	; 0x24
 80015e2:	f000 fa93 	bl	8001b0c <HAL_DMA_Init>
 80015e6:	b108      	cbz	r0, 80015ec <HAL_UART_MspInit+0x90>
 80015e8:	f7ff feaa 	bl	8001340 <Error_Handler>
 80015ec:	2200      	movs	r2, #0
 80015ee:	6374      	str	r4, [r6, #52]	; 0x34
 80015f0:	2025      	movs	r0, #37	; 0x25
 80015f2:	4611      	mov	r1, r2
 80015f4:	63a6      	str	r6, [r4, #56]	; 0x38
 80015f6:	f000 fa1b 	bl	8001a30 <HAL_NVIC_SetPriority>
 80015fa:	2025      	movs	r0, #37	; 0x25
 80015fc:	f000 fa4c 	bl	8001a98 <HAL_NVIC_EnableIRQ>
 8001600:	b008      	add	sp, #32
 8001602:	bd70      	pop	{r4, r5, r6, pc}
 8001604:	40011000 	.word	0x40011000
 8001608:	40020000 	.word	0x40020000
 800160c:	200000f8 	.word	0x200000f8
 8001610:	40026440 	.word	0x40026440

08001614 <NMI_Handler>:
 8001614:	e7fe      	b.n	8001614 <NMI_Handler>

08001616 <HardFault_Handler>:
 8001616:	e7fe      	b.n	8001616 <HardFault_Handler>

08001618 <MemManage_Handler>:
 8001618:	e7fe      	b.n	8001618 <MemManage_Handler>

0800161a <BusFault_Handler>:
 800161a:	e7fe      	b.n	800161a <BusFault_Handler>

0800161c <UsageFault_Handler>:
 800161c:	e7fe      	b.n	800161c <UsageFault_Handler>

0800161e <SVC_Handler>:
 800161e:	4770      	bx	lr

08001620 <DebugMon_Handler>:
 8001620:	4770      	bx	lr

08001622 <PendSV_Handler>:
 8001622:	4770      	bx	lr

08001624 <SysTick_Handler>:
 8001624:	f000 b89c 	b.w	8001760 <HAL_IncTick>

08001628 <TIM3_IRQHandler>:
 8001628:	b508      	push	{r3, lr}
 800162a:	4803      	ldr	r0, [pc, #12]	; (8001638 <TIM3_IRQHandler+0x10>)
 800162c:	f001 f89f 	bl	800276e <HAL_TIM_IRQHandler>
 8001630:	e8bd 4008 	ldmia.w	sp!, {r3, lr}
 8001634:	f002 b8b8 	b.w	80037a8 <_Z9timer_isrv>
 8001638:	20000244 	.word	0x20000244

0800163c <TIM4_IRQHandler>:
 800163c:	b508      	push	{r3, lr}
 800163e:	4803      	ldr	r0, [pc, #12]	; (800164c <TIM4_IRQHandler+0x10>)
 8001640:	f001 f895 	bl	800276e <HAL_TIM_IRQHandler>
 8001644:	e8bd 4008 	ldmia.w	sp!, {r3, lr}
 8001648:	f002 b8fa 	b.w	8003840 <_Z11systick_isrv>
 800164c:	20000284 	.word	0x20000284

08001650 <SPI1_IRQHandler>:
 8001650:	4801      	ldr	r0, [pc, #4]	; (8001658 <SPI1_IRQHandler+0x8>)
 8001652:	f000 bfed 	b.w	8002630 <HAL_SPI_IRQHandler>
 8001656:	bf00      	nop
 8001658:	200001ac 	.word	0x200001ac

0800165c <USART1_IRQHandler>:
 800165c:	4801      	ldr	r0, [pc, #4]	; (8001664 <USART1_IRQHandler+0x8>)
 800165e:	f001 be67 	b.w	8003330 <_ZN6Serial3ISREv>
 8001662:	bf00      	nop
 8001664:	20000304 	.word	0x20000304

08001668 <DMA2_Stream2_IRQHandler>:
 8001668:	4801      	ldr	r0, [pc, #4]	; (8001670 <DMA2_Stream2_IRQHandler+0x8>)
 800166a:	f000 badf 	b.w	8001c2c <HAL_DMA_IRQHandler>
 800166e:	bf00      	nop
 8001670:	200000f8 	.word	0x200000f8

08001674 <SystemInit>:
 8001674:	4b05      	ldr	r3, [pc, #20]	; (800168c <SystemInit+0x18>)
 8001676:	f8d3 2088 	ldr.w	r2, [r3, #136]	; 0x88
 800167a:	f442 0270 	orr.w	r2, r2, #15728640	; 0xf00000
 800167e:	f8c3 2088 	str.w	r2, [r3, #136]	; 0x88
 8001682:	f04f 6200 	mov.w	r2, #134217728	; 0x8000000
 8001686:	609a      	str	r2, [r3, #8]
 8001688:	4770      	bx	lr
 800168a:	bf00      	nop
 800168c:	e000ed00 	.word	0xe000ed00

08001690 <Reset_Handler>:
 8001690:	f8df d034 	ldr.w	sp, [pc, #52]	; 80016c8 <LoopFillZerobss+0x14>
 8001694:	2100      	movs	r1, #0
 8001696:	e003      	b.n	80016a0 <LoopCopyDataInit>

08001698 <CopyDataInit>:
 8001698:	4b0c      	ldr	r3, [pc, #48]	; (80016cc <LoopFillZerobss+0x18>)
 800169a:	585b      	ldr	r3, [r3, r1]
 800169c:	5043      	str	r3, [r0, r1]
 800169e:	3104      	adds	r1, #4

080016a0 <LoopCopyDataInit>:
 80016a0:	480b      	ldr	r0, [pc, #44]	; (80016d0 <LoopFillZerobss+0x1c>)
 80016a2:	4b0c      	ldr	r3, [pc, #48]	; (80016d4 <LoopFillZerobss+0x20>)
 80016a4:	1842      	adds	r2, r0, r1
 80016a6:	429a      	cmp	r2, r3
 80016a8:	d3f6      	bcc.n	8001698 <CopyDataInit>
 80016aa:	4a0b      	ldr	r2, [pc, #44]	; (80016d8 <LoopFillZerobss+0x24>)
 80016ac:	e002      	b.n	80016b4 <LoopFillZerobss>

080016ae <FillZerobss>:
 80016ae:	2300      	movs	r3, #0
 80016b0:	f842 3b04 	str.w	r3, [r2], #4

080016b4 <LoopFillZerobss>:
 80016b4:	4b09      	ldr	r3, [pc, #36]	; (80016dc <LoopFillZerobss+0x28>)
 80016b6:	429a      	cmp	r2, r3
 80016b8:	d3f9      	bcc.n	80016ae <FillZerobss>
 80016ba:	f7ff ffdb 	bl	8001674 <SystemInit>
 80016be:	f003 f8fb 	bl	80048b8 <__libc_init_array>
 80016c2:	f7ff fc45 	bl	8000f50 <main>
 80016c6:	4770      	bx	lr
 80016c8:	20020000 	.word	0x20020000
 80016cc:	08004a04 	.word	0x08004a04
 80016d0:	20000000 	.word	0x20000000
 80016d4:	20000094 	.word	0x20000094
 80016d8:	20000094 	.word	0x20000094
 80016dc:	20001000 	.word	0x20001000

080016e0 <ADC_IRQHandler>:
 80016e0:	e7fe      	b.n	80016e0 <ADC_IRQHandler>
	...

080016e4 <HAL_InitTick>:
 80016e4:	b538      	push	{r3, r4, r5, lr}
 80016e6:	4a0e      	ldr	r2, [pc, #56]	; (8001720 <HAL_InitTick+0x3c>)
 80016e8:	4b0e      	ldr	r3, [pc, #56]	; (8001724 <HAL_InitTick+0x40>)
 80016ea:	4605      	mov	r5, r0
 80016ec:	7818      	ldrb	r0, [r3, #0]
 80016ee:	f44f 737a 	mov.w	r3, #1000	; 0x3e8
 80016f2:	fbb3 f3f0 	udiv	r3, r3, r0
 80016f6:	6810      	ldr	r0, [r2, #0]
 80016f8:	fbb0 f0f3 	udiv	r0, r0, r3
 80016fc:	f000 f9da 	bl	8001ab4 <HAL_SYSTICK_Config>
 8001700:	4604      	mov	r4, r0
 8001702:	b958      	cbnz	r0, 800171c <HAL_InitTick+0x38>
 8001704:	2d0f      	cmp	r5, #15
 8001706:	d809      	bhi.n	800171c <HAL_InitTick+0x38>
 8001708:	4602      	mov	r2, r0
 800170a:	4629      	mov	r1, r5
 800170c:	f04f 30ff 	mov.w	r0, #4294967295
 8001710:	f000 f98e 	bl	8001a30 <HAL_NVIC_SetPriority>
 8001714:	4b04      	ldr	r3, [pc, #16]	; (8001728 <HAL_InitTick+0x44>)
 8001716:	4620      	mov	r0, r4
 8001718:	601d      	str	r5, [r3, #0]
 800171a:	bd38      	pop	{r3, r4, r5, pc}
 800171c:	2001      	movs	r0, #1
 800171e:	e7fc      	b.n	800171a <HAL_InitTick+0x36>
 8001720:	20000000 	.word	0x20000000
 8001724:	20000004 	.word	0x20000004
 8001728:	20000008 	.word	0x20000008

0800172c <HAL_Init>:
 800172c:	b508      	push	{r3, lr}
 800172e:	4b0b      	ldr	r3, [pc, #44]	; (800175c <HAL_Init+0x30>)
 8001730:	681a      	ldr	r2, [r3, #0]
 8001732:	f442 7200 	orr.w	r2, r2, #512	; 0x200
 8001736:	601a      	str	r2, [r3, #0]
 8001738:	681a      	ldr	r2, [r3, #0]
 800173a:	f442 6280 	orr.w	r2, r2, #1024	; 0x400
 800173e:	601a      	str	r2, [r3, #0]
 8001740:	681a      	ldr	r2, [r3, #0]
 8001742:	f442 7280 	orr.w	r2, r2, #256	; 0x100
 8001746:	601a      	str	r2, [r3, #0]
 8001748:	2003      	movs	r0, #3
 800174a:	f000 f95f 	bl	8001a0c <HAL_NVIC_SetPriorityGrouping>
 800174e:	2000      	movs	r0, #0
 8001750:	f7ff ffc8 	bl	80016e4 <HAL_InitTick>
 8001754:	f7ff fdf6 	bl	8001344 <HAL_MspInit>
 8001758:	2000      	movs	r0, #0
 800175a:	bd08      	pop	{r3, pc}
 800175c:	40023c00 	.word	0x40023c00

08001760 <HAL_IncTick>:
 8001760:	4a03      	ldr	r2, [pc, #12]	; (8001770 <HAL_IncTick+0x10>)
 8001762:	4b04      	ldr	r3, [pc, #16]	; (8001774 <HAL_IncTick+0x14>)
 8001764:	6811      	ldr	r1, [r2, #0]
 8001766:	781b      	ldrb	r3, [r3, #0]
 8001768:	440b      	add	r3, r1
 800176a:	6013      	str	r3, [r2, #0]
 800176c:	4770      	bx	lr
 800176e:	bf00      	nop
 8001770:	20000ffc 	.word	0x20000ffc
 8001774:	20000004 	.word	0x20000004

08001778 <HAL_GetTick>:
 8001778:	4b01      	ldr	r3, [pc, #4]	; (8001780 <HAL_GetTick+0x8>)
 800177a:	6818      	ldr	r0, [r3, #0]
 800177c:	4770      	bx	lr
 800177e:	bf00      	nop
 8001780:	20000ffc 	.word	0x20000ffc

08001784 <HAL_ADC_Init>:
 8001784:	b538      	push	{r3, r4, r5, lr}
 8001786:	4604      	mov	r4, r0
 8001788:	2800      	cmp	r0, #0
 800178a:	f000 809b 	beq.w	80018c4 <HAL_ADC_Init+0x140>
 800178e:	6c05      	ldr	r5, [r0, #64]	; 0x40
 8001790:	b925      	cbnz	r5, 800179c <HAL_ADC_Init+0x18>
 8001792:	f7ff fdf3 	bl	800137c <HAL_ADC_MspInit>
 8001796:	6465      	str	r5, [r4, #68]	; 0x44
 8001798:	f884 503c 	strb.w	r5, [r4, #60]	; 0x3c
 800179c:	6c23      	ldr	r3, [r4, #64]	; 0x40
 800179e:	06db      	lsls	r3, r3, #27
 80017a0:	f100 808e 	bmi.w	80018c0 <HAL_ADC_Init+0x13c>
 80017a4:	6c23      	ldr	r3, [r4, #64]	; 0x40
 80017a6:	f423 5388 	bic.w	r3, r3, #4352	; 0x1100
 80017aa:	f023 0302 	bic.w	r3, r3, #2
 80017ae:	f043 0302 	orr.w	r3, r3, #2
 80017b2:	6423      	str	r3, [r4, #64]	; 0x40
 80017b4:	4b44      	ldr	r3, [pc, #272]	; (80018c8 <HAL_ADC_Init+0x144>)
 80017b6:	685a      	ldr	r2, [r3, #4]
 80017b8:	f422 3240 	bic.w	r2, r2, #196608	; 0x30000
 80017bc:	605a      	str	r2, [r3, #4]
 80017be:	685a      	ldr	r2, [r3, #4]
 80017c0:	6861      	ldr	r1, [r4, #4]
 80017c2:	430a      	orrs	r2, r1
 80017c4:	605a      	str	r2, [r3, #4]
 80017c6:	6823      	ldr	r3, [r4, #0]
 80017c8:	6921      	ldr	r1, [r4, #16]
 80017ca:	685a      	ldr	r2, [r3, #4]
 80017cc:	f422 7280 	bic.w	r2, r2, #256	; 0x100
 80017d0:	605a      	str	r2, [r3, #4]
 80017d2:	685a      	ldr	r2, [r3, #4]
 80017d4:	ea42 2201 	orr.w	r2, r2, r1, lsl #8
 80017d8:	605a      	str	r2, [r3, #4]
 80017da:	685a      	ldr	r2, [r3, #4]
 80017dc:	68a1      	ldr	r1, [r4, #8]
 80017de:	f022 7240 	bic.w	r2, r2, #50331648	; 0x3000000
 80017e2:	605a      	str	r2, [r3, #4]
 80017e4:	685a      	ldr	r2, [r3, #4]
 80017e6:	430a      	orrs	r2, r1
 80017e8:	605a      	str	r2, [r3, #4]
 80017ea:	689a      	ldr	r2, [r3, #8]
 80017ec:	68e1      	ldr	r1, [r4, #12]
 80017ee:	f422 6200 	bic.w	r2, r2, #2048	; 0x800
 80017f2:	609a      	str	r2, [r3, #8]
 80017f4:	689a      	ldr	r2, [r3, #8]
 80017f6:	430a      	orrs	r2, r1
 80017f8:	609a      	str	r2, [r3, #8]
 80017fa:	4934      	ldr	r1, [pc, #208]	; (80018cc <HAL_ADC_Init+0x148>)
 80017fc:	6aa2      	ldr	r2, [r4, #40]	; 0x28
 80017fe:	428a      	cmp	r2, r1
 8001800:	d052      	beq.n	80018a8 <HAL_ADC_Init+0x124>
 8001802:	6899      	ldr	r1, [r3, #8]
 8001804:	f021 6170 	bic.w	r1, r1, #251658240	; 0xf000000
 8001808:	6099      	str	r1, [r3, #8]
 800180a:	6899      	ldr	r1, [r3, #8]
 800180c:	430a      	orrs	r2, r1
 800180e:	609a      	str	r2, [r3, #8]
 8001810:	689a      	ldr	r2, [r3, #8]
 8001812:	6ae1      	ldr	r1, [r4, #44]	; 0x2c
 8001814:	f022 5240 	bic.w	r2, r2, #805306368	; 0x30000000
 8001818:	609a      	str	r2, [r3, #8]
 800181a:	689a      	ldr	r2, [r3, #8]
 800181c:	430a      	orrs	r2, r1
 800181e:	609a      	str	r2, [r3, #8]
 8001820:	689a      	ldr	r2, [r3, #8]
 8001822:	7e21      	ldrb	r1, [r4, #24]
 8001824:	f022 0202 	bic.w	r2, r2, #2
 8001828:	609a      	str	r2, [r3, #8]
 800182a:	689a      	ldr	r2, [r3, #8]
 800182c:	ea42 0241 	orr.w	r2, r2, r1, lsl #1
 8001830:	609a      	str	r2, [r3, #8]
 8001832:	f894 2020 	ldrb.w	r2, [r4, #32]
 8001836:	2a00      	cmp	r2, #0
 8001838:	d03e      	beq.n	80018b8 <HAL_ADC_Init+0x134>
 800183a:	685a      	ldr	r2, [r3, #4]
 800183c:	6a61      	ldr	r1, [r4, #36]	; 0x24
 800183e:	f442 6200 	orr.w	r2, r2, #2048	; 0x800
 8001842:	605a      	str	r2, [r3, #4]
 8001844:	685a      	ldr	r2, [r3, #4]
 8001846:	f422 4260 	bic.w	r2, r2, #57344	; 0xe000
 800184a:	605a      	str	r2, [r3, #4]
 800184c:	685a      	ldr	r2, [r3, #4]
 800184e:	3901      	subs	r1, #1
 8001850:	ea42 3241 	orr.w	r2, r2, r1, lsl #13
 8001854:	605a      	str	r2, [r3, #4]
 8001856:	6ada      	ldr	r2, [r3, #44]	; 0x2c
 8001858:	69e1      	ldr	r1, [r4, #28]
 800185a:	f422 0270 	bic.w	r2, r2, #15728640	; 0xf00000
 800185e:	62da      	str	r2, [r3, #44]	; 0x2c
 8001860:	6ada      	ldr	r2, [r3, #44]	; 0x2c
 8001862:	3901      	subs	r1, #1
 8001864:	ea42 5201 	orr.w	r2, r2, r1, lsl #20
 8001868:	62da      	str	r2, [r3, #44]	; 0x2c
 800186a:	689a      	ldr	r2, [r3, #8]
 800186c:	f894 1030 	ldrb.w	r1, [r4, #48]	; 0x30
 8001870:	f422 7200 	bic.w	r2, r2, #512	; 0x200
 8001874:	609a      	str	r2, [r3, #8]
 8001876:	689a      	ldr	r2, [r3, #8]
 8001878:	ea42 2241 	orr.w	r2, r2, r1, lsl #9
 800187c:	609a      	str	r2, [r3, #8]
 800187e:	689a      	ldr	r2, [r3, #8]
 8001880:	6961      	ldr	r1, [r4, #20]
 8001882:	f422 6280 	bic.w	r2, r2, #1024	; 0x400
 8001886:	609a      	str	r2, [r3, #8]
 8001888:	689a      	ldr	r2, [r3, #8]
 800188a:	2000      	movs	r0, #0
 800188c:	ea42 2281 	orr.w	r2, r2, r1, lsl #10
 8001890:	609a      	str	r2, [r3, #8]
 8001892:	6460      	str	r0, [r4, #68]	; 0x44
 8001894:	6c23      	ldr	r3, [r4, #64]	; 0x40
 8001896:	f023 0303 	bic.w	r3, r3, #3
 800189a:	f043 0301 	orr.w	r3, r3, #1
 800189e:	6423      	str	r3, [r4, #64]	; 0x40
 80018a0:	2300      	movs	r3, #0
 80018a2:	f884 303c 	strb.w	r3, [r4, #60]	; 0x3c
 80018a6:	bd38      	pop	{r3, r4, r5, pc}
 80018a8:	689a      	ldr	r2, [r3, #8]
 80018aa:	f022 6270 	bic.w	r2, r2, #251658240	; 0xf000000
 80018ae:	609a      	str	r2, [r3, #8]
 80018b0:	689a      	ldr	r2, [r3, #8]
 80018b2:	f022 5240 	bic.w	r2, r2, #805306368	; 0x30000000
 80018b6:	e7b2      	b.n	800181e <HAL_ADC_Init+0x9a>
 80018b8:	685a      	ldr	r2, [r3, #4]
 80018ba:	f422 6200 	bic.w	r2, r2, #2048	; 0x800
 80018be:	e7c9      	b.n	8001854 <HAL_ADC_Init+0xd0>
 80018c0:	2001      	movs	r0, #1
 80018c2:	e7ed      	b.n	80018a0 <HAL_ADC_Init+0x11c>
 80018c4:	2001      	movs	r0, #1
 80018c6:	e7ee      	b.n	80018a6 <HAL_ADC_Init+0x122>
 80018c8:	40012300 	.word	0x40012300
 80018cc:	0f000001 	.word	0x0f000001

080018d0 <HAL_ADC_ConfigChannel>:
 80018d0:	b5f7      	push	{r0, r1, r2, r4, r5, r6, r7, lr}
 80018d2:	2300      	movs	r3, #0
 80018d4:	9301      	str	r3, [sp, #4]
 80018d6:	f890 303c 	ldrb.w	r3, [r0, #60]	; 0x3c
 80018da:	2b01      	cmp	r3, #1
 80018dc:	d06a      	beq.n	80019b4 <HAL_ADC_ConfigChannel+0xe4>
 80018de:	680d      	ldr	r5, [r1, #0]
 80018e0:	688e      	ldr	r6, [r1, #8]
 80018e2:	2301      	movs	r3, #1
 80018e4:	2d09      	cmp	r5, #9
 80018e6:	f880 303c 	strb.w	r3, [r0, #60]	; 0x3c
 80018ea:	b2ac      	uxth	r4, r5
 80018ec:	6803      	ldr	r3, [r0, #0]
 80018ee:	d929      	bls.n	8001944 <HAL_ADC_ConfigChannel+0x74>
 80018f0:	eb04 0244 	add.w	r2, r4, r4, lsl #1
 80018f4:	68df      	ldr	r7, [r3, #12]
 80018f6:	3a1e      	subs	r2, #30
 80018f8:	f04f 0c07 	mov.w	ip, #7
 80018fc:	fa0c fc02 	lsl.w	ip, ip, r2
 8001900:	ea27 070c 	bic.w	r7, r7, ip
 8001904:	60df      	str	r7, [r3, #12]
 8001906:	68df      	ldr	r7, [r3, #12]
 8001908:	fa06 f202 	lsl.w	r2, r6, r2
 800190c:	433a      	orrs	r2, r7
 800190e:	60da      	str	r2, [r3, #12]
 8001910:	6849      	ldr	r1, [r1, #4]
 8001912:	2906      	cmp	r1, #6
 8001914:	eb01 0281 	add.w	r2, r1, r1, lsl #2
 8001918:	d824      	bhi.n	8001964 <HAL_ADC_ConfigChannel+0x94>
 800191a:	6b59      	ldr	r1, [r3, #52]	; 0x34
 800191c:	3a05      	subs	r2, #5
 800191e:	261f      	movs	r6, #31
 8001920:	4096      	lsls	r6, r2
 8001922:	ea21 0106 	bic.w	r1, r1, r6
 8001926:	6359      	str	r1, [r3, #52]	; 0x34
 8001928:	6b59      	ldr	r1, [r3, #52]	; 0x34
 800192a:	fa04 f202 	lsl.w	r2, r4, r2
 800192e:	430a      	orrs	r2, r1
 8001930:	635a      	str	r2, [r3, #52]	; 0x34
 8001932:	4a31      	ldr	r2, [pc, #196]	; (80019f8 <HAL_ADC_ConfigChannel+0x128>)
 8001934:	4293      	cmp	r3, r2
 8001936:	d031      	beq.n	800199c <HAL_ADC_ConfigChannel+0xcc>
 8001938:	2300      	movs	r3, #0
 800193a:	f880 303c 	strb.w	r3, [r0, #60]	; 0x3c
 800193e:	4618      	mov	r0, r3
 8001940:	b003      	add	sp, #12
 8001942:	bdf0      	pop	{r4, r5, r6, r7, pc}
 8001944:	691f      	ldr	r7, [r3, #16]
 8001946:	eb05 0245 	add.w	r2, r5, r5, lsl #1
 800194a:	f04f 0c07 	mov.w	ip, #7
 800194e:	fa0c fc02 	lsl.w	ip, ip, r2
 8001952:	ea27 070c 	bic.w	r7, r7, ip
 8001956:	611f      	str	r7, [r3, #16]
 8001958:	691f      	ldr	r7, [r3, #16]
 800195a:	fa06 f202 	lsl.w	r2, r6, r2
 800195e:	433a      	orrs	r2, r7
 8001960:	611a      	str	r2, [r3, #16]
 8001962:	e7d5      	b.n	8001910 <HAL_ADC_ConfigChannel+0x40>
 8001964:	290c      	cmp	r1, #12
 8001966:	f04f 011f 	mov.w	r1, #31
 800196a:	d80b      	bhi.n	8001984 <HAL_ADC_ConfigChannel+0xb4>
 800196c:	6b1e      	ldr	r6, [r3, #48]	; 0x30
 800196e:	3a23      	subs	r2, #35	; 0x23
 8001970:	4091      	lsls	r1, r2
 8001972:	ea26 0101 	bic.w	r1, r6, r1
 8001976:	6319      	str	r1, [r3, #48]	; 0x30
 8001978:	6b19      	ldr	r1, [r3, #48]	; 0x30
 800197a:	fa04 f202 	lsl.w	r2, r4, r2
 800197e:	430a      	orrs	r2, r1
 8001980:	631a      	str	r2, [r3, #48]	; 0x30
 8001982:	e7d6      	b.n	8001932 <HAL_ADC_ConfigChannel+0x62>
 8001984:	6ade      	ldr	r6, [r3, #44]	; 0x2c
 8001986:	3a41      	subs	r2, #65	; 0x41
 8001988:	4091      	lsls	r1, r2
 800198a:	ea26 0101 	bic.w	r1, r6, r1
 800198e:	62d9      	str	r1, [r3, #44]	; 0x2c
 8001990:	6ad9      	ldr	r1, [r3, #44]	; 0x2c
 8001992:	fa04 f202 	lsl.w	r2, r4, r2
 8001996:	430a      	orrs	r2, r1
 8001998:	62da      	str	r2, [r3, #44]	; 0x2c
 800199a:	e7ca      	b.n	8001932 <HAL_ADC_ConfigChannel+0x62>
 800199c:	2d12      	cmp	r5, #18
 800199e:	d10b      	bne.n	80019b8 <HAL_ADC_ConfigChannel+0xe8>
 80019a0:	4b16      	ldr	r3, [pc, #88]	; (80019fc <HAL_ADC_ConfigChannel+0x12c>)
 80019a2:	685a      	ldr	r2, [r3, #4]
 80019a4:	f422 0200 	bic.w	r2, r2, #8388608	; 0x800000
 80019a8:	605a      	str	r2, [r3, #4]
 80019aa:	685a      	ldr	r2, [r3, #4]
 80019ac:	f442 0280 	orr.w	r2, r2, #4194304	; 0x400000
 80019b0:	605a      	str	r2, [r3, #4]
 80019b2:	e7c1      	b.n	8001938 <HAL_ADC_ConfigChannel+0x68>
 80019b4:	2002      	movs	r0, #2
 80019b6:	e7c3      	b.n	8001940 <HAL_ADC_ConfigChannel+0x70>
 80019b8:	4b11      	ldr	r3, [pc, #68]	; (8001a00 <HAL_ADC_ConfigChannel+0x130>)
 80019ba:	429d      	cmp	r5, r3
 80019bc:	d001      	beq.n	80019c2 <HAL_ADC_ConfigChannel+0xf2>
 80019be:	2d11      	cmp	r5, #17
 80019c0:	d1ba      	bne.n	8001938 <HAL_ADC_ConfigChannel+0x68>
 80019c2:	4b0e      	ldr	r3, [pc, #56]	; (80019fc <HAL_ADC_ConfigChannel+0x12c>)
 80019c4:	685a      	ldr	r2, [r3, #4]
 80019c6:	f422 0280 	bic.w	r2, r2, #4194304	; 0x400000
 80019ca:	605a      	str	r2, [r3, #4]
 80019cc:	685a      	ldr	r2, [r3, #4]
 80019ce:	f442 0200 	orr.w	r2, r2, #8388608	; 0x800000
 80019d2:	605a      	str	r2, [r3, #4]
 80019d4:	4b0a      	ldr	r3, [pc, #40]	; (8001a00 <HAL_ADC_ConfigChannel+0x130>)
 80019d6:	429d      	cmp	r5, r3
 80019d8:	d1ae      	bne.n	8001938 <HAL_ADC_ConfigChannel+0x68>
 80019da:	4b0a      	ldr	r3, [pc, #40]	; (8001a04 <HAL_ADC_ConfigChannel+0x134>)
 80019dc:	4a0a      	ldr	r2, [pc, #40]	; (8001a08 <HAL_ADC_ConfigChannel+0x138>)
 80019de:	681b      	ldr	r3, [r3, #0]
 80019e0:	fbb3 f2f2 	udiv	r2, r3, r2
 80019e4:	230a      	movs	r3, #10
 80019e6:	4353      	muls	r3, r2
 80019e8:	9301      	str	r3, [sp, #4]
 80019ea:	9b01      	ldr	r3, [sp, #4]
 80019ec:	2b00      	cmp	r3, #0
 80019ee:	d0a3      	beq.n	8001938 <HAL_ADC_ConfigChannel+0x68>
 80019f0:	9b01      	ldr	r3, [sp, #4]
 80019f2:	3b01      	subs	r3, #1
 80019f4:	e7f8      	b.n	80019e8 <HAL_ADC_ConfigChannel+0x118>
 80019f6:	bf00      	nop
 80019f8:	40012000 	.word	0x40012000
 80019fc:	40012300 	.word	0x40012300
 8001a00:	10000012 	.word	0x10000012
 8001a04:	20000000 	.word	0x20000000
 8001a08:	000f4240 	.word	0x000f4240

08001a0c <HAL_NVIC_SetPriorityGrouping>:
 8001a0c:	4a07      	ldr	r2, [pc, #28]	; (8001a2c <HAL_NVIC_SetPriorityGrouping+0x20>)
 8001a0e:	68d3      	ldr	r3, [r2, #12]
 8001a10:	f423 63e0 	bic.w	r3, r3, #1792	; 0x700
 8001a14:	041b      	lsls	r3, r3, #16
 8001a16:	0c1b      	lsrs	r3, r3, #16
 8001a18:	f043 63bf 	orr.w	r3, r3, #100139008	; 0x5f80000
 8001a1c:	0200      	lsls	r0, r0, #8
 8001a1e:	f443 3300 	orr.w	r3, r3, #131072	; 0x20000
 8001a22:	f400 60e0 	and.w	r0, r0, #1792	; 0x700
 8001a26:	4303      	orrs	r3, r0
 8001a28:	60d3      	str	r3, [r2, #12]
 8001a2a:	4770      	bx	lr
 8001a2c:	e000ed00 	.word	0xe000ed00

08001a30 <HAL_NVIC_SetPriority>:
 8001a30:	4b17      	ldr	r3, [pc, #92]	; (8001a90 <HAL_NVIC_SetPriority+0x60>)
 8001a32:	b570      	push	{r4, r5, r6, lr}
 8001a34:	68dc      	ldr	r4, [r3, #12]
 8001a36:	f3c4 2402 	ubfx	r4, r4, #8, #3
 8001a3a:	f1c4 0507 	rsb	r5, r4, #7
 8001a3e:	2d04      	cmp	r5, #4
 8001a40:	f104 0304 	add.w	r3, r4, #4
 8001a44:	bf28      	it	cs
 8001a46:	2504      	movcs	r5, #4
 8001a48:	f04f 36ff 	mov.w	r6, #4294967295
 8001a4c:	2b06      	cmp	r3, #6
 8001a4e:	fa06 f305 	lsl.w	r3, r6, r5
 8001a52:	bf8c      	ite	hi
 8001a54:	3c03      	subhi	r4, #3
 8001a56:	2400      	movls	r4, #0
 8001a58:	ea21 0303 	bic.w	r3, r1, r3
 8001a5c:	40a3      	lsls	r3, r4
 8001a5e:	fa06 f404 	lsl.w	r4, r6, r4
 8001a62:	ea22 0404 	bic.w	r4, r2, r4
 8001a66:	2800      	cmp	r0, #0
 8001a68:	ea43 0304 	orr.w	r3, r3, r4
 8001a6c:	bfa8      	it	ge
 8001a6e:	f100 4060 	addge.w	r0, r0, #3758096384	; 0xe0000000
 8001a72:	ea4f 1303 	mov.w	r3, r3, lsl #4
 8001a76:	bfbc      	itt	lt
 8001a78:	f000 000f 	andlt.w	r0, r0, #15
 8001a7c:	4a05      	ldrlt	r2, [pc, #20]	; (8001a94 <HAL_NVIC_SetPriority+0x64>)
 8001a7e:	b2db      	uxtb	r3, r3
 8001a80:	bfaa      	itet	ge
 8001a82:	f500 4061 	addge.w	r0, r0, #57600	; 0xe100
 8001a86:	5413      	strblt	r3, [r2, r0]
 8001a88:	f880 3300 	strbge.w	r3, [r0, #768]	; 0x300
 8001a8c:	bd70      	pop	{r4, r5, r6, pc}
 8001a8e:	bf00      	nop
 8001a90:	e000ed00 	.word	0xe000ed00
 8001a94:	e000ed14 	.word	0xe000ed14

08001a98 <HAL_NVIC_EnableIRQ>:
 8001a98:	2800      	cmp	r0, #0
 8001a9a:	db08      	blt.n	8001aae <HAL_NVIC_EnableIRQ+0x16>
 8001a9c:	0942      	lsrs	r2, r0, #5
 8001a9e:	2301      	movs	r3, #1
 8001aa0:	f000 001f 	and.w	r0, r0, #31
 8001aa4:	fa03 f000 	lsl.w	r0, r3, r0
 8001aa8:	4b01      	ldr	r3, [pc, #4]	; (8001ab0 <HAL_NVIC_EnableIRQ+0x18>)
 8001aaa:	f843 0022 	str.w	r0, [r3, r2, lsl #2]
 8001aae:	4770      	bx	lr
 8001ab0:	e000e100 	.word	0xe000e100

08001ab4 <HAL_SYSTICK_Config>:
 8001ab4:	3801      	subs	r0, #1
 8001ab6:	f1b0 7f80 	cmp.w	r0, #16777216	; 0x1000000
 8001aba:	d20a      	bcs.n	8001ad2 <HAL_SYSTICK_Config+0x1e>
 8001abc:	4b06      	ldr	r3, [pc, #24]	; (8001ad8 <HAL_SYSTICK_Config+0x24>)
 8001abe:	4a07      	ldr	r2, [pc, #28]	; (8001adc <HAL_SYSTICK_Config+0x28>)
 8001ac0:	6058      	str	r0, [r3, #4]
 8001ac2:	21f0      	movs	r1, #240	; 0xf0
 8001ac4:	f882 1023 	strb.w	r1, [r2, #35]	; 0x23
 8001ac8:	2000      	movs	r0, #0
 8001aca:	2207      	movs	r2, #7
 8001acc:	6098      	str	r0, [r3, #8]
 8001ace:	601a      	str	r2, [r3, #0]
 8001ad0:	4770      	bx	lr
 8001ad2:	2001      	movs	r0, #1
 8001ad4:	4770      	bx	lr
 8001ad6:	bf00      	nop
 8001ad8:	e000e010 	.word	0xe000e010
 8001adc:	e000ed00 	.word	0xe000ed00

08001ae0 <DMA_CalcBaseAndBitshift>:
 8001ae0:	6803      	ldr	r3, [r0, #0]
 8001ae2:	b2da      	uxtb	r2, r3
 8001ae4:	f423 737f 	bic.w	r3, r3, #1020	; 0x3fc
 8001ae8:	f023 0303 	bic.w	r3, r3, #3
 8001aec:	2118      	movs	r1, #24
 8001aee:	3a10      	subs	r2, #16
 8001af0:	fbb2 f2f1 	udiv	r2, r2, r1
 8001af4:	4904      	ldr	r1, [pc, #16]	; (8001b08 <DMA_CalcBaseAndBitshift+0x28>)
 8001af6:	2a03      	cmp	r2, #3
 8001af8:	bf88      	it	hi
 8001afa:	3304      	addhi	r3, #4
 8001afc:	5c89      	ldrb	r1, [r1, r2]
 8001afe:	6583      	str	r3, [r0, #88]	; 0x58
 8001b00:	65c1      	str	r1, [r0, #92]	; 0x5c
 8001b02:	6d80      	ldr	r0, [r0, #88]	; 0x58
 8001b04:	4770      	bx	lr
 8001b06:	bf00      	nop
 8001b08:	08004940 	.word	0x08004940

08001b0c <HAL_DMA_Init>:
 8001b0c:	b570      	push	{r4, r5, r6, lr}
 8001b0e:	4604      	mov	r4, r0
 8001b10:	f7ff fe32 	bl	8001778 <HAL_GetTick>
 8001b14:	4605      	mov	r5, r0
 8001b16:	2c00      	cmp	r4, #0
 8001b18:	d071      	beq.n	8001bfe <HAL_DMA_Init+0xf2>
 8001b1a:	2300      	movs	r3, #0
 8001b1c:	f884 3034 	strb.w	r3, [r4, #52]	; 0x34
 8001b20:	6822      	ldr	r2, [r4, #0]
 8001b22:	2302      	movs	r3, #2
 8001b24:	f884 3035 	strb.w	r3, [r4, #53]	; 0x35
 8001b28:	6813      	ldr	r3, [r2, #0]
 8001b2a:	f023 0301 	bic.w	r3, r3, #1
 8001b2e:	6013      	str	r3, [r2, #0]
 8001b30:	6821      	ldr	r1, [r4, #0]
 8001b32:	680b      	ldr	r3, [r1, #0]
 8001b34:	07d8      	lsls	r0, r3, #31
 8001b36:	d43c      	bmi.n	8001bb2 <HAL_DMA_Init+0xa6>
 8001b38:	680b      	ldr	r3, [r1, #0]
 8001b3a:	4d32      	ldr	r5, [pc, #200]	; (8001c04 <HAL_DMA_Init+0xf8>)
 8001b3c:	69a0      	ldr	r0, [r4, #24]
 8001b3e:	401d      	ands	r5, r3
 8001b40:	e9d4 2301 	ldrd	r2, r3, [r4, #4]
 8001b44:	4313      	orrs	r3, r2
 8001b46:	68e2      	ldr	r2, [r4, #12]
 8001b48:	4313      	orrs	r3, r2
 8001b4a:	6922      	ldr	r2, [r4, #16]
 8001b4c:	4313      	orrs	r3, r2
 8001b4e:	6962      	ldr	r2, [r4, #20]
 8001b50:	4313      	orrs	r3, r2
 8001b52:	69e2      	ldr	r2, [r4, #28]
 8001b54:	4303      	orrs	r3, r0
 8001b56:	4313      	orrs	r3, r2
 8001b58:	6a22      	ldr	r2, [r4, #32]
 8001b5a:	4313      	orrs	r3, r2
 8001b5c:	6a62      	ldr	r2, [r4, #36]	; 0x24
 8001b5e:	2a04      	cmp	r2, #4
 8001b60:	ea43 0305 	orr.w	r3, r3, r5
 8001b64:	bf02      	ittt	eq
 8001b66:	e9d4 560b 	ldrdeq	r5, r6, [r4, #44]	; 0x2c
 8001b6a:	4335      	orreq	r5, r6
 8001b6c:	432b      	orreq	r3, r5
 8001b6e:	600b      	str	r3, [r1, #0]
 8001b70:	694b      	ldr	r3, [r1, #20]
 8001b72:	2a04      	cmp	r2, #4
 8001b74:	f023 0307 	bic.w	r3, r3, #7
 8001b78:	ea43 0302 	orr.w	r3, r3, r2
 8001b7c:	d10b      	bne.n	8001b96 <HAL_DMA_Init+0x8a>
 8001b7e:	6aa2      	ldr	r2, [r4, #40]	; 0x28
 8001b80:	6ae5      	ldr	r5, [r4, #44]	; 0x2c
 8001b82:	4313      	orrs	r3, r2
 8001b84:	b13d      	cbz	r5, 8001b96 <HAL_DMA_Init+0x8a>
 8001b86:	b9f8      	cbnz	r0, 8001bc8 <HAL_DMA_Init+0xbc>
 8001b88:	2a01      	cmp	r2, #1
 8001b8a:	d02d      	beq.n	8001be8 <HAL_DMA_Init+0xdc>
 8001b8c:	d301      	bcc.n	8001b92 <HAL_DMA_Init+0x86>
 8001b8e:	2a02      	cmp	r2, #2
 8001b90:	d101      	bne.n	8001b96 <HAL_DMA_Init+0x8a>
 8001b92:	01ea      	lsls	r2, r5, #7
 8001b94:	d42b      	bmi.n	8001bee <HAL_DMA_Init+0xe2>
 8001b96:	614b      	str	r3, [r1, #20]
 8001b98:	4620      	mov	r0, r4
 8001b9a:	f7ff ffa1 	bl	8001ae0 <DMA_CalcBaseAndBitshift>
 8001b9e:	6de2      	ldr	r2, [r4, #92]	; 0x5c
 8001ba0:	233f      	movs	r3, #63	; 0x3f
 8001ba2:	4093      	lsls	r3, r2
 8001ba4:	6083      	str	r3, [r0, #8]
 8001ba6:	2000      	movs	r0, #0
 8001ba8:	2301      	movs	r3, #1
 8001baa:	6560      	str	r0, [r4, #84]	; 0x54
 8001bac:	f884 3035 	strb.w	r3, [r4, #53]	; 0x35
 8001bb0:	e009      	b.n	8001bc6 <HAL_DMA_Init+0xba>
 8001bb2:	f7ff fde1 	bl	8001778 <HAL_GetTick>
 8001bb6:	1b40      	subs	r0, r0, r5
 8001bb8:	2805      	cmp	r0, #5
 8001bba:	d9b9      	bls.n	8001b30 <HAL_DMA_Init+0x24>
 8001bbc:	2320      	movs	r3, #32
 8001bbe:	6563      	str	r3, [r4, #84]	; 0x54
 8001bc0:	2003      	movs	r0, #3
 8001bc2:	f884 0035 	strb.w	r0, [r4, #53]	; 0x35
 8001bc6:	bd70      	pop	{r4, r5, r6, pc}
 8001bc8:	f5b0 5f00 	cmp.w	r0, #8192	; 0x2000
 8001bcc:	d113      	bne.n	8001bf6 <HAL_DMA_Init+0xea>
 8001bce:	2a03      	cmp	r2, #3
 8001bd0:	d8e1      	bhi.n	8001b96 <HAL_DMA_Init+0x8a>
 8001bd2:	a001      	add	r0, pc, #4	; (adr r0, 8001bd8 <HAL_DMA_Init+0xcc>)
 8001bd4:	f850 f022 	ldr.w	pc, [r0, r2, lsl #2]
 8001bd8:	08001bef 	.word	0x08001bef
 8001bdc:	08001b93 	.word	0x08001b93
 8001be0:	08001bef 	.word	0x08001bef
 8001be4:	08001be9 	.word	0x08001be9
 8001be8:	f1b5 7fc0 	cmp.w	r5, #25165824	; 0x1800000
 8001bec:	d1d3      	bne.n	8001b96 <HAL_DMA_Init+0x8a>
 8001bee:	2340      	movs	r3, #64	; 0x40
 8001bf0:	6563      	str	r3, [r4, #84]	; 0x54
 8001bf2:	2001      	movs	r0, #1
 8001bf4:	e7e5      	b.n	8001bc2 <HAL_DMA_Init+0xb6>
 8001bf6:	2a02      	cmp	r2, #2
 8001bf8:	d9f9      	bls.n	8001bee <HAL_DMA_Init+0xe2>
 8001bfa:	2a03      	cmp	r2, #3
 8001bfc:	e7c8      	b.n	8001b90 <HAL_DMA_Init+0x84>
 8001bfe:	2001      	movs	r0, #1
 8001c00:	e7e1      	b.n	8001bc6 <HAL_DMA_Init+0xba>
 8001c02:	bf00      	nop
 8001c04:	f010803f 	.word	0xf010803f

08001c08 <HAL_DMA_Abort_IT>:
 8001c08:	f890 3035 	ldrb.w	r3, [r0, #53]	; 0x35
 8001c0c:	2b02      	cmp	r3, #2
 8001c0e:	d003      	beq.n	8001c18 <HAL_DMA_Abort_IT+0x10>
 8001c10:	2380      	movs	r3, #128	; 0x80
 8001c12:	6543      	str	r3, [r0, #84]	; 0x54
 8001c14:	2001      	movs	r0, #1
 8001c16:	4770      	bx	lr
 8001c18:	6802      	ldr	r2, [r0, #0]
 8001c1a:	2305      	movs	r3, #5
 8001c1c:	f880 3035 	strb.w	r3, [r0, #53]	; 0x35
 8001c20:	6813      	ldr	r3, [r2, #0]
 8001c22:	f023 0301 	bic.w	r3, r3, #1
 8001c26:	6013      	str	r3, [r2, #0]
 8001c28:	2000      	movs	r0, #0
 8001c2a:	4770      	bx	lr

08001c2c <HAL_DMA_IRQHandler>:
 8001c2c:	b5f7      	push	{r0, r1, r2, r4, r5, r6, r7, lr}
 8001c2e:	2300      	movs	r3, #0
 8001c30:	9301      	str	r3, [sp, #4]
 8001c32:	4b5c      	ldr	r3, [pc, #368]	; (8001da4 <HAL_DMA_IRQHandler+0x178>)
 8001c34:	6d85      	ldr	r5, [r0, #88]	; 0x58
 8001c36:	681f      	ldr	r7, [r3, #0]
 8001c38:	6dc3      	ldr	r3, [r0, #92]	; 0x5c
 8001c3a:	682e      	ldr	r6, [r5, #0]
 8001c3c:	2208      	movs	r2, #8
 8001c3e:	409a      	lsls	r2, r3
 8001c40:	4232      	tst	r2, r6
 8001c42:	4604      	mov	r4, r0
 8001c44:	d00c      	beq.n	8001c60 <HAL_DMA_IRQHandler+0x34>
 8001c46:	6801      	ldr	r1, [r0, #0]
 8001c48:	6808      	ldr	r0, [r1, #0]
 8001c4a:	0740      	lsls	r0, r0, #29
 8001c4c:	d508      	bpl.n	8001c60 <HAL_DMA_IRQHandler+0x34>
 8001c4e:	6808      	ldr	r0, [r1, #0]
 8001c50:	f020 0004 	bic.w	r0, r0, #4
 8001c54:	6008      	str	r0, [r1, #0]
 8001c56:	60aa      	str	r2, [r5, #8]
 8001c58:	6d62      	ldr	r2, [r4, #84]	; 0x54
 8001c5a:	f042 0201 	orr.w	r2, r2, #1
 8001c5e:	6562      	str	r2, [r4, #84]	; 0x54
 8001c60:	2201      	movs	r2, #1
 8001c62:	409a      	lsls	r2, r3
 8001c64:	4232      	tst	r2, r6
 8001c66:	d008      	beq.n	8001c7a <HAL_DMA_IRQHandler+0x4e>
 8001c68:	6821      	ldr	r1, [r4, #0]
 8001c6a:	6949      	ldr	r1, [r1, #20]
 8001c6c:	0609      	lsls	r1, r1, #24
 8001c6e:	bf41      	itttt	mi
 8001c70:	60aa      	strmi	r2, [r5, #8]
 8001c72:	6d62      	ldrmi	r2, [r4, #84]	; 0x54
 8001c74:	f042 0202 	orrmi.w	r2, r2, #2
 8001c78:	6562      	strmi	r2, [r4, #84]	; 0x54
 8001c7a:	2204      	movs	r2, #4
 8001c7c:	409a      	lsls	r2, r3
 8001c7e:	4232      	tst	r2, r6
 8001c80:	d008      	beq.n	8001c94 <HAL_DMA_IRQHandler+0x68>
 8001c82:	6821      	ldr	r1, [r4, #0]
 8001c84:	6809      	ldr	r1, [r1, #0]
 8001c86:	0788      	lsls	r0, r1, #30
 8001c88:	bf41      	itttt	mi
 8001c8a:	60aa      	strmi	r2, [r5, #8]
 8001c8c:	6d62      	ldrmi	r2, [r4, #84]	; 0x54
 8001c8e:	f042 0204 	orrmi.w	r2, r2, #4
 8001c92:	6562      	strmi	r2, [r4, #84]	; 0x54
 8001c94:	2210      	movs	r2, #16
 8001c96:	409a      	lsls	r2, r3
 8001c98:	4232      	tst	r2, r6
 8001c9a:	d010      	beq.n	8001cbe <HAL_DMA_IRQHandler+0x92>
 8001c9c:	6823      	ldr	r3, [r4, #0]
 8001c9e:	6819      	ldr	r1, [r3, #0]
 8001ca0:	0709      	lsls	r1, r1, #28
 8001ca2:	d50c      	bpl.n	8001cbe <HAL_DMA_IRQHandler+0x92>
 8001ca4:	60aa      	str	r2, [r5, #8]
 8001ca6:	681a      	ldr	r2, [r3, #0]
 8001ca8:	0350      	lsls	r0, r2, #13
 8001caa:	d537      	bpl.n	8001d1c <HAL_DMA_IRQHandler+0xf0>
 8001cac:	681b      	ldr	r3, [r3, #0]
 8001cae:	0319      	lsls	r1, r3, #12
 8001cb0:	d401      	bmi.n	8001cb6 <HAL_DMA_IRQHandler+0x8a>
 8001cb2:	6c23      	ldr	r3, [r4, #64]	; 0x40
 8001cb4:	e000      	b.n	8001cb8 <HAL_DMA_IRQHandler+0x8c>
 8001cb6:	6ca3      	ldr	r3, [r4, #72]	; 0x48
 8001cb8:	b10b      	cbz	r3, 8001cbe <HAL_DMA_IRQHandler+0x92>
 8001cba:	4620      	mov	r0, r4
 8001cbc:	4798      	blx	r3
 8001cbe:	6de1      	ldr	r1, [r4, #92]	; 0x5c
 8001cc0:	2220      	movs	r2, #32
 8001cc2:	408a      	lsls	r2, r1
 8001cc4:	4232      	tst	r2, r6
 8001cc6:	d03a      	beq.n	8001d3e <HAL_DMA_IRQHandler+0x112>
 8001cc8:	6823      	ldr	r3, [r4, #0]
 8001cca:	6818      	ldr	r0, [r3, #0]
 8001ccc:	06c6      	lsls	r6, r0, #27
 8001cce:	d536      	bpl.n	8001d3e <HAL_DMA_IRQHandler+0x112>
 8001cd0:	60aa      	str	r2, [r5, #8]
 8001cd2:	f894 2035 	ldrb.w	r2, [r4, #53]	; 0x35
 8001cd6:	2a05      	cmp	r2, #5
 8001cd8:	681a      	ldr	r2, [r3, #0]
 8001cda:	d127      	bne.n	8001d2c <HAL_DMA_IRQHandler+0x100>
 8001cdc:	f022 0216 	bic.w	r2, r2, #22
 8001ce0:	601a      	str	r2, [r3, #0]
 8001ce2:	695a      	ldr	r2, [r3, #20]
 8001ce4:	f022 0280 	bic.w	r2, r2, #128	; 0x80
 8001ce8:	615a      	str	r2, [r3, #20]
 8001cea:	6c22      	ldr	r2, [r4, #64]	; 0x40
 8001cec:	b90a      	cbnz	r2, 8001cf2 <HAL_DMA_IRQHandler+0xc6>
 8001cee:	6ca2      	ldr	r2, [r4, #72]	; 0x48
 8001cf0:	b11a      	cbz	r2, 8001cfa <HAL_DMA_IRQHandler+0xce>
 8001cf2:	681a      	ldr	r2, [r3, #0]
 8001cf4:	f022 0208 	bic.w	r2, r2, #8
 8001cf8:	601a      	str	r2, [r3, #0]
 8001cfa:	233f      	movs	r3, #63	; 0x3f
 8001cfc:	408b      	lsls	r3, r1
 8001cfe:	60ab      	str	r3, [r5, #8]
 8001d00:	2300      	movs	r3, #0
 8001d02:	f884 3034 	strb.w	r3, [r4, #52]	; 0x34
 8001d06:	2301      	movs	r3, #1
 8001d08:	f884 3035 	strb.w	r3, [r4, #53]	; 0x35
 8001d0c:	6d23      	ldr	r3, [r4, #80]	; 0x50
 8001d0e:	2b00      	cmp	r3, #0
 8001d10:	d045      	beq.n	8001d9e <HAL_DMA_IRQHandler+0x172>
 8001d12:	4620      	mov	r0, r4
 8001d14:	b003      	add	sp, #12
 8001d16:	e8bd 40f0 	ldmia.w	sp!, {r4, r5, r6, r7, lr}
 8001d1a:	4718      	bx	r3
 8001d1c:	681a      	ldr	r2, [r3, #0]
 8001d1e:	05d2      	lsls	r2, r2, #23
 8001d20:	bf5e      	ittt	pl
 8001d22:	681a      	ldrpl	r2, [r3, #0]
 8001d24:	f022 0208 	bicpl.w	r2, r2, #8
 8001d28:	601a      	strpl	r2, [r3, #0]
 8001d2a:	e7c2      	b.n	8001cb2 <HAL_DMA_IRQHandler+0x86>
 8001d2c:	0350      	lsls	r0, r2, #13
 8001d2e:	d527      	bpl.n	8001d80 <HAL_DMA_IRQHandler+0x154>
 8001d30:	681b      	ldr	r3, [r3, #0]
 8001d32:	0319      	lsls	r1, r3, #12
 8001d34:	d431      	bmi.n	8001d9a <HAL_DMA_IRQHandler+0x16e>
 8001d36:	6c63      	ldr	r3, [r4, #68]	; 0x44
 8001d38:	b10b      	cbz	r3, 8001d3e <HAL_DMA_IRQHandler+0x112>
 8001d3a:	4620      	mov	r0, r4
 8001d3c:	4798      	blx	r3
 8001d3e:	6d63      	ldr	r3, [r4, #84]	; 0x54
 8001d40:	b36b      	cbz	r3, 8001d9e <HAL_DMA_IRQHandler+0x172>
 8001d42:	6d63      	ldr	r3, [r4, #84]	; 0x54
 8001d44:	07da      	lsls	r2, r3, #31
 8001d46:	d519      	bpl.n	8001d7c <HAL_DMA_IRQHandler+0x150>
 8001d48:	2305      	movs	r3, #5
 8001d4a:	6822      	ldr	r2, [r4, #0]
 8001d4c:	f884 3035 	strb.w	r3, [r4, #53]	; 0x35
 8001d50:	6813      	ldr	r3, [r2, #0]
 8001d52:	f023 0301 	bic.w	r3, r3, #1
 8001d56:	6013      	str	r3, [r2, #0]
 8001d58:	f44f 5316 	mov.w	r3, #9600	; 0x2580
 8001d5c:	fbb7 f7f3 	udiv	r7, r7, r3
 8001d60:	9b01      	ldr	r3, [sp, #4]
 8001d62:	3301      	adds	r3, #1
 8001d64:	42bb      	cmp	r3, r7
 8001d66:	9301      	str	r3, [sp, #4]
 8001d68:	d802      	bhi.n	8001d70 <HAL_DMA_IRQHandler+0x144>
 8001d6a:	6813      	ldr	r3, [r2, #0]
 8001d6c:	07db      	lsls	r3, r3, #31
 8001d6e:	d4f7      	bmi.n	8001d60 <HAL_DMA_IRQHandler+0x134>
 8001d70:	2300      	movs	r3, #0
 8001d72:	f884 3034 	strb.w	r3, [r4, #52]	; 0x34
 8001d76:	2301      	movs	r3, #1
 8001d78:	f884 3035 	strb.w	r3, [r4, #53]	; 0x35
 8001d7c:	6ce3      	ldr	r3, [r4, #76]	; 0x4c
 8001d7e:	e7c6      	b.n	8001d0e <HAL_DMA_IRQHandler+0xe2>
 8001d80:	681a      	ldr	r2, [r3, #0]
 8001d82:	f412 7280 	ands.w	r2, r2, #256	; 0x100
 8001d86:	d108      	bne.n	8001d9a <HAL_DMA_IRQHandler+0x16e>
 8001d88:	6819      	ldr	r1, [r3, #0]
 8001d8a:	f021 0110 	bic.w	r1, r1, #16
 8001d8e:	6019      	str	r1, [r3, #0]
 8001d90:	2301      	movs	r3, #1
 8001d92:	f884 2034 	strb.w	r2, [r4, #52]	; 0x34
 8001d96:	f884 3035 	strb.w	r3, [r4, #53]	; 0x35
 8001d9a:	6be3      	ldr	r3, [r4, #60]	; 0x3c
 8001d9c:	e7cc      	b.n	8001d38 <HAL_DMA_IRQHandler+0x10c>
 8001d9e:	b003      	add	sp, #12
 8001da0:	bdf0      	pop	{r4, r5, r6, r7, pc}
 8001da2:	bf00      	nop
 8001da4:	20000000 	.word	0x20000000

08001da8 <HAL_GPIO_Init>:
 8001da8:	e92d 4ff0 	stmdb	sp!, {r4, r5, r6, r7, r8, r9, sl, fp, lr}
 8001dac:	b085      	sub	sp, #20
 8001dae:	680b      	ldr	r3, [r1, #0]
 8001db0:	f8df 818c 	ldr.w	r8, [pc, #396]	; 8001f40 <HAL_GPIO_Init+0x198>
 8001db4:	4a60      	ldr	r2, [pc, #384]	; (8001f38 <HAL_GPIO_Init+0x190>)
 8001db6:	9301      	str	r3, [sp, #4]
 8001db8:	f04f 0901 	mov.w	r9, #1
 8001dbc:	2300      	movs	r3, #0
 8001dbe:	9d01      	ldr	r5, [sp, #4]
 8001dc0:	fa09 f403 	lsl.w	r4, r9, r3
 8001dc4:	4025      	ands	r5, r4
 8001dc6:	42ac      	cmp	r4, r5
 8001dc8:	f040 80a6 	bne.w	8001f18 <HAL_GPIO_Init+0x170>
 8001dcc:	684c      	ldr	r4, [r1, #4]
 8001dce:	f024 0c10 	bic.w	ip, r4, #16
 8001dd2:	ea4f 0e43 	mov.w	lr, r3, lsl #1
 8001dd6:	2603      	movs	r6, #3
 8001dd8:	f10c 37ff 	add.w	r7, ip, #4294967295
 8001ddc:	fa06 f60e 	lsl.w	r6, r6, lr
 8001de0:	2f01      	cmp	r7, #1
 8001de2:	ea6f 0606 	mvn.w	r6, r6
 8001de6:	d811      	bhi.n	8001e0c <HAL_GPIO_Init+0x64>
 8001de8:	6887      	ldr	r7, [r0, #8]
 8001dea:	ea07 0a06 	and.w	sl, r7, r6
 8001dee:	68cf      	ldr	r7, [r1, #12]
 8001df0:	fa07 f70e 	lsl.w	r7, r7, lr
 8001df4:	ea47 070a 	orr.w	r7, r7, sl
 8001df8:	6087      	str	r7, [r0, #8]
 8001dfa:	6847      	ldr	r7, [r0, #4]
 8001dfc:	ea27 0a05 	bic.w	sl, r7, r5
 8001e00:	f3c4 1700 	ubfx	r7, r4, #4, #1
 8001e04:	409f      	lsls	r7, r3
 8001e06:	ea47 070a 	orr.w	r7, r7, sl
 8001e0a:	6047      	str	r7, [r0, #4]
 8001e0c:	68c7      	ldr	r7, [r0, #12]
 8001e0e:	ea07 0a06 	and.w	sl, r7, r6
 8001e12:	688f      	ldr	r7, [r1, #8]
 8001e14:	fa07 f70e 	lsl.w	r7, r7, lr
 8001e18:	ea47 070a 	orr.w	r7, r7, sl
 8001e1c:	f1bc 0f02 	cmp.w	ip, #2
 8001e20:	60c7      	str	r7, [r0, #12]
 8001e22:	d116      	bne.n	8001e52 <HAL_GPIO_Init+0xaa>
 8001e24:	ea4f 0ad3 	mov.w	sl, r3, lsr #3
 8001e28:	eb00 0a8a 	add.w	sl, r0, sl, lsl #2
 8001e2c:	f003 0b07 	and.w	fp, r3, #7
 8001e30:	f8da 7020 	ldr.w	r7, [sl, #32]
 8001e34:	ea4f 0b8b 	mov.w	fp, fp, lsl #2
 8001e38:	f04f 0c0f 	mov.w	ip, #15
 8001e3c:	fa0c fc0b 	lsl.w	ip, ip, fp
 8001e40:	ea27 0c0c 	bic.w	ip, r7, ip
 8001e44:	690f      	ldr	r7, [r1, #16]
 8001e46:	fa07 f70b 	lsl.w	r7, r7, fp
 8001e4a:	ea47 070c 	orr.w	r7, r7, ip
 8001e4e:	f8ca 7020 	str.w	r7, [sl, #32]
 8001e52:	6807      	ldr	r7, [r0, #0]
 8001e54:	403e      	ands	r6, r7
 8001e56:	f004 0703 	and.w	r7, r4, #3
 8001e5a:	fa07 fe0e 	lsl.w	lr, r7, lr
 8001e5e:	ea4e 0606 	orr.w	r6, lr, r6
 8001e62:	6006      	str	r6, [r0, #0]
 8001e64:	00e6      	lsls	r6, r4, #3
 8001e66:	d557      	bpl.n	8001f18 <HAL_GPIO_Init+0x170>
 8001e68:	f04f 0b00 	mov.w	fp, #0
 8001e6c:	f8cd b00c 	str.w	fp, [sp, #12]
 8001e70:	f8d8 7044 	ldr.w	r7, [r8, #68]	; 0x44
 8001e74:	4e31      	ldr	r6, [pc, #196]	; (8001f3c <HAL_GPIO_Init+0x194>)
 8001e76:	f447 4780 	orr.w	r7, r7, #16384	; 0x4000
 8001e7a:	f8c8 7044 	str.w	r7, [r8, #68]	; 0x44
 8001e7e:	f8d8 7044 	ldr.w	r7, [r8, #68]	; 0x44
 8001e82:	f407 4780 	and.w	r7, r7, #16384	; 0x4000
 8001e86:	9703      	str	r7, [sp, #12]
 8001e88:	9f03      	ldr	r7, [sp, #12]
 8001e8a:	f023 0703 	bic.w	r7, r3, #3
 8001e8e:	f107 4780 	add.w	r7, r7, #1073741824	; 0x40000000
 8001e92:	f507 379c 	add.w	r7, r7, #79872	; 0x13800
 8001e96:	f003 0e03 	and.w	lr, r3, #3
 8001e9a:	f8d7 a008 	ldr.w	sl, [r7, #8]
 8001e9e:	ea4f 0e8e 	mov.w	lr, lr, lsl #2
 8001ea2:	f04f 0c0f 	mov.w	ip, #15
 8001ea6:	fa0c fc0e 	lsl.w	ip, ip, lr
 8001eaa:	42b0      	cmp	r0, r6
 8001eac:	ea2a 0c0c 	bic.w	ip, sl, ip
 8001eb0:	d039      	beq.n	8001f26 <HAL_GPIO_Init+0x17e>
 8001eb2:	f506 6680 	add.w	r6, r6, #1024	; 0x400
 8001eb6:	42b0      	cmp	r0, r6
 8001eb8:	d037      	beq.n	8001f2a <HAL_GPIO_Init+0x182>
 8001eba:	f506 6680 	add.w	r6, r6, #1024	; 0x400
 8001ebe:	42b0      	cmp	r0, r6
 8001ec0:	d035      	beq.n	8001f2e <HAL_GPIO_Init+0x186>
 8001ec2:	f506 6680 	add.w	r6, r6, #1024	; 0x400
 8001ec6:	42b0      	cmp	r0, r6
 8001ec8:	d033      	beq.n	8001f32 <HAL_GPIO_Init+0x18a>
 8001eca:	f506 6680 	add.w	r6, r6, #1024	; 0x400
 8001ece:	42b0      	cmp	r0, r6
 8001ed0:	bf14      	ite	ne
 8001ed2:	2607      	movne	r6, #7
 8001ed4:	2604      	moveq	r6, #4
 8001ed6:	fa06 f60e 	lsl.w	r6, r6, lr
 8001eda:	ea46 060c 	orr.w	r6, r6, ip
 8001ede:	60be      	str	r6, [r7, #8]
 8001ee0:	6816      	ldr	r6, [r2, #0]
 8001ee2:	43ef      	mvns	r7, r5
 8001ee4:	f414 3f80 	tst.w	r4, #65536	; 0x10000
 8001ee8:	bf0c      	ite	eq
 8001eea:	403e      	andeq	r6, r7
 8001eec:	432e      	orrne	r6, r5
 8001eee:	6016      	str	r6, [r2, #0]
 8001ef0:	6856      	ldr	r6, [r2, #4]
 8001ef2:	f414 3f00 	tst.w	r4, #131072	; 0x20000
 8001ef6:	bf0c      	ite	eq
 8001ef8:	403e      	andeq	r6, r7
 8001efa:	432e      	orrne	r6, r5
 8001efc:	6056      	str	r6, [r2, #4]
 8001efe:	6896      	ldr	r6, [r2, #8]
 8001f00:	f414 1f80 	tst.w	r4, #1048576	; 0x100000
 8001f04:	bf0c      	ite	eq
 8001f06:	403e      	andeq	r6, r7
 8001f08:	432e      	orrne	r6, r5
 8001f0a:	6096      	str	r6, [r2, #8]
 8001f0c:	68d6      	ldr	r6, [r2, #12]
 8001f0e:	02a4      	lsls	r4, r4, #10
 8001f10:	bf54      	ite	pl
 8001f12:	403e      	andpl	r6, r7
 8001f14:	432e      	orrmi	r6, r5
 8001f16:	60d6      	str	r6, [r2, #12]
 8001f18:	3301      	adds	r3, #1
 8001f1a:	2b10      	cmp	r3, #16
 8001f1c:	f47f af4f 	bne.w	8001dbe <HAL_GPIO_Init+0x16>
 8001f20:	b005      	add	sp, #20
 8001f22:	e8bd 8ff0 	ldmia.w	sp!, {r4, r5, r6, r7, r8, r9, sl, fp, pc}
 8001f26:	465e      	mov	r6, fp
 8001f28:	e7d5      	b.n	8001ed6 <HAL_GPIO_Init+0x12e>
 8001f2a:	2601      	movs	r6, #1
 8001f2c:	e7d3      	b.n	8001ed6 <HAL_GPIO_Init+0x12e>
 8001f2e:	2602      	movs	r6, #2
 8001f30:	e7d1      	b.n	8001ed6 <HAL_GPIO_Init+0x12e>
 8001f32:	2603      	movs	r6, #3
 8001f34:	e7cf      	b.n	8001ed6 <HAL_GPIO_Init+0x12e>
 8001f36:	bf00      	nop
 8001f38:	40013c00 	.word	0x40013c00
 8001f3c:	40020000 	.word	0x40020000
 8001f40:	40023800 	.word	0x40023800

08001f44 <HAL_GPIO_WritePin>:
 8001f44:	b10a      	cbz	r2, 8001f4a <HAL_GPIO_WritePin+0x6>
 8001f46:	6181      	str	r1, [r0, #24]
 8001f48:	4770      	bx	lr
 8001f4a:	0409      	lsls	r1, r1, #16
 8001f4c:	e7fb      	b.n	8001f46 <HAL_GPIO_WritePin+0x2>
	...

08001f50 <HAL_I2C_Init>:
 8001f50:	b570      	push	{r4, r5, r6, lr}
 8001f52:	4604      	mov	r4, r0
 8001f54:	b908      	cbnz	r0, 8001f5a <HAL_I2C_Init+0xa>
 8001f56:	2001      	movs	r0, #1
 8001f58:	bd70      	pop	{r4, r5, r6, pc}
 8001f5a:	f890 303d 	ldrb.w	r3, [r0, #61]	; 0x3d
 8001f5e:	f003 02ff 	and.w	r2, r3, #255	; 0xff
 8001f62:	b91b      	cbnz	r3, 8001f6c <HAL_I2C_Init+0x1c>
 8001f64:	f880 203c 	strb.w	r2, [r0, #60]	; 0x3c
 8001f68:	f7ff fa3a 	bl	80013e0 <HAL_I2C_MspInit>
 8001f6c:	2324      	movs	r3, #36	; 0x24
 8001f6e:	f884 303d 	strb.w	r3, [r4, #61]	; 0x3d
 8001f72:	6823      	ldr	r3, [r4, #0]
 8001f74:	681a      	ldr	r2, [r3, #0]
 8001f76:	f022 0201 	bic.w	r2, r2, #1
 8001f7a:	601a      	str	r2, [r3, #0]
 8001f7c:	681a      	ldr	r2, [r3, #0]
 8001f7e:	f442 4200 	orr.w	r2, r2, #32768	; 0x8000
 8001f82:	601a      	str	r2, [r3, #0]
 8001f84:	681a      	ldr	r2, [r3, #0]
 8001f86:	f422 4200 	bic.w	r2, r2, #32768	; 0x8000
 8001f8a:	601a      	str	r2, [r3, #0]
 8001f8c:	f000 faf2 	bl	8002574 <HAL_RCC_GetPCLK1Freq>
 8001f90:	6863      	ldr	r3, [r4, #4]
 8001f92:	4a41      	ldr	r2, [pc, #260]	; (8002098 <HAL_I2C_Init+0x148>)
 8001f94:	4293      	cmp	r3, r2
 8001f96:	d84d      	bhi.n	8002034 <HAL_I2C_Init+0xe4>
 8001f98:	4a40      	ldr	r2, [pc, #256]	; (800209c <HAL_I2C_Init+0x14c>)
 8001f9a:	4290      	cmp	r0, r2
 8001f9c:	d9db      	bls.n	8001f56 <HAL_I2C_Init+0x6>
 8001f9e:	6822      	ldr	r2, [r4, #0]
 8001fa0:	493f      	ldr	r1, [pc, #252]	; (80020a0 <HAL_I2C_Init+0x150>)
 8001fa2:	6855      	ldr	r5, [r2, #4]
 8001fa4:	fbb0 f1f1 	udiv	r1, r0, r1
 8001fa8:	f025 053f 	bic.w	r5, r5, #63	; 0x3f
 8001fac:	430d      	orrs	r5, r1
 8001fae:	6055      	str	r5, [r2, #4]
 8001fb0:	6a15      	ldr	r5, [r2, #32]
 8001fb2:	f025 053f 	bic.w	r5, r5, #63	; 0x3f
 8001fb6:	3101      	adds	r1, #1
 8001fb8:	4329      	orrs	r1, r5
 8001fba:	6211      	str	r1, [r2, #32]
 8001fbc:	69d1      	ldr	r1, [r2, #28]
 8001fbe:	4d36      	ldr	r5, [pc, #216]	; (8002098 <HAL_I2C_Init+0x148>)
 8001fc0:	f421 414f 	bic.w	r1, r1, #52992	; 0xcf00
 8001fc4:	42ab      	cmp	r3, r5
 8001fc6:	f021 01ff 	bic.w	r1, r1, #255	; 0xff
 8001fca:	f100 30ff 	add.w	r0, r0, #4294967295
 8001fce:	d848      	bhi.n	8002062 <HAL_I2C_Init+0x112>
 8001fd0:	005b      	lsls	r3, r3, #1
 8001fd2:	fbb0 f0f3 	udiv	r0, r0, r3
 8001fd6:	1c43      	adds	r3, r0, #1
 8001fd8:	f3c3 030b 	ubfx	r3, r3, #0, #12
 8001fdc:	2b04      	cmp	r3, #4
 8001fde:	bf38      	it	cc
 8001fe0:	2304      	movcc	r3, #4
 8001fe2:	430b      	orrs	r3, r1
 8001fe4:	61d3      	str	r3, [r2, #28]
 8001fe6:	e9d4 3007 	ldrd	r3, r0, [r4, #28]
 8001fea:	6811      	ldr	r1, [r2, #0]
 8001fec:	4303      	orrs	r3, r0
 8001fee:	f021 01c0 	bic.w	r1, r1, #192	; 0xc0
 8001ff2:	430b      	orrs	r3, r1
 8001ff4:	6013      	str	r3, [r2, #0]
 8001ff6:	6891      	ldr	r1, [r2, #8]
 8001ff8:	e9d4 0303 	ldrd	r0, r3, [r4, #12]
 8001ffc:	f421 4103 	bic.w	r1, r1, #33536	; 0x8300
 8002000:	4303      	orrs	r3, r0
 8002002:	f021 01ff 	bic.w	r1, r1, #255	; 0xff
 8002006:	430b      	orrs	r3, r1
 8002008:	6093      	str	r3, [r2, #8]
 800200a:	e9d4 3005 	ldrd	r3, r0, [r4, #20]
 800200e:	68d1      	ldr	r1, [r2, #12]
 8002010:	4303      	orrs	r3, r0
 8002012:	f021 01ff 	bic.w	r1, r1, #255	; 0xff
 8002016:	430b      	orrs	r3, r1
 8002018:	60d3      	str	r3, [r2, #12]
 800201a:	6813      	ldr	r3, [r2, #0]
 800201c:	f043 0301 	orr.w	r3, r3, #1
 8002020:	6013      	str	r3, [r2, #0]
 8002022:	2000      	movs	r0, #0
 8002024:	2320      	movs	r3, #32
 8002026:	6420      	str	r0, [r4, #64]	; 0x40
 8002028:	f884 303d 	strb.w	r3, [r4, #61]	; 0x3d
 800202c:	6320      	str	r0, [r4, #48]	; 0x30
 800202e:	f884 003e 	strb.w	r0, [r4, #62]	; 0x3e
 8002032:	e791      	b.n	8001f58 <HAL_I2C_Init+0x8>
 8002034:	4a1b      	ldr	r2, [pc, #108]	; (80020a4 <HAL_I2C_Init+0x154>)
 8002036:	4290      	cmp	r0, r2
 8002038:	d98d      	bls.n	8001f56 <HAL_I2C_Init+0x6>
 800203a:	6822      	ldr	r2, [r4, #0]
 800203c:	4e18      	ldr	r6, [pc, #96]	; (80020a0 <HAL_I2C_Init+0x150>)
 800203e:	6855      	ldr	r5, [r2, #4]
 8002040:	fbb0 f6f6 	udiv	r6, r0, r6
 8002044:	f025 053f 	bic.w	r5, r5, #63	; 0x3f
 8002048:	4335      	orrs	r5, r6
 800204a:	6055      	str	r5, [r2, #4]
 800204c:	6a15      	ldr	r5, [r2, #32]
 800204e:	f44f 7196 	mov.w	r1, #300	; 0x12c
 8002052:	4371      	muls	r1, r6
 8002054:	f025 053f 	bic.w	r5, r5, #63	; 0x3f
 8002058:	f44f 767a 	mov.w	r6, #1000	; 0x3e8
 800205c:	fbb1 f1f6 	udiv	r1, r1, r6
 8002060:	e7a9      	b.n	8001fb6 <HAL_I2C_Init+0x66>
 8002062:	68a5      	ldr	r5, [r4, #8]
 8002064:	b955      	cbnz	r5, 800207c <HAL_I2C_Init+0x12c>
 8002066:	eb03 0343 	add.w	r3, r3, r3, lsl #1
 800206a:	fbb0 f0f3 	udiv	r0, r0, r3
 800206e:	1c43      	adds	r3, r0, #1
 8002070:	f3c3 030b 	ubfx	r3, r3, #0, #12
 8002074:	b16b      	cbz	r3, 8002092 <HAL_I2C_Init+0x142>
 8002076:	f443 4300 	orr.w	r3, r3, #32768	; 0x8000
 800207a:	e7b2      	b.n	8001fe2 <HAL_I2C_Init+0x92>
 800207c:	2519      	movs	r5, #25
 800207e:	436b      	muls	r3, r5
 8002080:	fbb0 f0f3 	udiv	r0, r0, r3
 8002084:	1c43      	adds	r3, r0, #1
 8002086:	f3c3 030b 	ubfx	r3, r3, #0, #12
 800208a:	b113      	cbz	r3, 8002092 <HAL_I2C_Init+0x142>
 800208c:	f443 4340 	orr.w	r3, r3, #49152	; 0xc000
 8002090:	e7a7      	b.n	8001fe2 <HAL_I2C_Init+0x92>
 8002092:	2301      	movs	r3, #1
 8002094:	e7a5      	b.n	8001fe2 <HAL_I2C_Init+0x92>
 8002096:	bf00      	nop
 8002098:	000186a0 	.word	0x000186a0
 800209c:	001e847f 	.word	0x001e847f
 80020a0:	000f4240 	.word	0x000f4240
 80020a4:	003d08ff 	.word	0x003d08ff

080020a8 <HAL_RCC_OscConfig>:
 80020a8:	e92d 41f3 	stmdb	sp!, {r0, r1, r4, r5, r6, r7, r8, lr}
 80020ac:	4604      	mov	r4, r0
 80020ae:	b908      	cbnz	r0, 80020b4 <HAL_RCC_OscConfig+0xc>
 80020b0:	2001      	movs	r0, #1
 80020b2:	e03f      	b.n	8002134 <HAL_RCC_OscConfig+0x8c>
 80020b4:	6803      	ldr	r3, [r0, #0]
 80020b6:	07dd      	lsls	r5, r3, #31
 80020b8:	d410      	bmi.n	80020dc <HAL_RCC_OscConfig+0x34>
 80020ba:	6823      	ldr	r3, [r4, #0]
 80020bc:	0798      	lsls	r0, r3, #30
 80020be:	d45a      	bmi.n	8002176 <HAL_RCC_OscConfig+0xce>
 80020c0:	6823      	ldr	r3, [r4, #0]
 80020c2:	071a      	lsls	r2, r3, #28
 80020c4:	f100 809c 	bmi.w	8002200 <HAL_RCC_OscConfig+0x158>
 80020c8:	6823      	ldr	r3, [r4, #0]
 80020ca:	075b      	lsls	r3, r3, #29
 80020cc:	f100 80ba 	bmi.w	8002244 <HAL_RCC_OscConfig+0x19c>
 80020d0:	69a0      	ldr	r0, [r4, #24]
 80020d2:	2800      	cmp	r0, #0
 80020d4:	f040 811b 	bne.w	800230e <HAL_RCC_OscConfig+0x266>
 80020d8:	2000      	movs	r0, #0
 80020da:	e02b      	b.n	8002134 <HAL_RCC_OscConfig+0x8c>
 80020dc:	4ba7      	ldr	r3, [pc, #668]	; (800237c <HAL_RCC_OscConfig+0x2d4>)
 80020de:	689a      	ldr	r2, [r3, #8]
 80020e0:	f002 020c 	and.w	r2, r2, #12
 80020e4:	2a04      	cmp	r2, #4
 80020e6:	d007      	beq.n	80020f8 <HAL_RCC_OscConfig+0x50>
 80020e8:	689a      	ldr	r2, [r3, #8]
 80020ea:	f002 020c 	and.w	r2, r2, #12
 80020ee:	2a08      	cmp	r2, #8
 80020f0:	d10a      	bne.n	8002108 <HAL_RCC_OscConfig+0x60>
 80020f2:	685b      	ldr	r3, [r3, #4]
 80020f4:	0259      	lsls	r1, r3, #9
 80020f6:	d507      	bpl.n	8002108 <HAL_RCC_OscConfig+0x60>
 80020f8:	4ba0      	ldr	r3, [pc, #640]	; (800237c <HAL_RCC_OscConfig+0x2d4>)
 80020fa:	681b      	ldr	r3, [r3, #0]
 80020fc:	039a      	lsls	r2, r3, #14
 80020fe:	d5dc      	bpl.n	80020ba <HAL_RCC_OscConfig+0x12>
 8002100:	6863      	ldr	r3, [r4, #4]
 8002102:	2b00      	cmp	r3, #0
 8002104:	d1d9      	bne.n	80020ba <HAL_RCC_OscConfig+0x12>
 8002106:	e7d3      	b.n	80020b0 <HAL_RCC_OscConfig+0x8>
 8002108:	6863      	ldr	r3, [r4, #4]
 800210a:	4d9c      	ldr	r5, [pc, #624]	; (800237c <HAL_RCC_OscConfig+0x2d4>)
 800210c:	f5b3 3f80 	cmp.w	r3, #65536	; 0x10000
 8002110:	d113      	bne.n	800213a <HAL_RCC_OscConfig+0x92>
 8002112:	682b      	ldr	r3, [r5, #0]
 8002114:	f443 3380 	orr.w	r3, r3, #65536	; 0x10000
 8002118:	602b      	str	r3, [r5, #0]
 800211a:	f7ff fb2d 	bl	8001778 <HAL_GetTick>
 800211e:	4d97      	ldr	r5, [pc, #604]	; (800237c <HAL_RCC_OscConfig+0x2d4>)
 8002120:	4606      	mov	r6, r0
 8002122:	682b      	ldr	r3, [r5, #0]
 8002124:	039b      	lsls	r3, r3, #14
 8002126:	d4c8      	bmi.n	80020ba <HAL_RCC_OscConfig+0x12>
 8002128:	f7ff fb26 	bl	8001778 <HAL_GetTick>
 800212c:	1b80      	subs	r0, r0, r6
 800212e:	2864      	cmp	r0, #100	; 0x64
 8002130:	d9f7      	bls.n	8002122 <HAL_RCC_OscConfig+0x7a>
 8002132:	2003      	movs	r0, #3
 8002134:	b002      	add	sp, #8
 8002136:	e8bd 81f0 	ldmia.w	sp!, {r4, r5, r6, r7, r8, pc}
 800213a:	f5b3 2fa0 	cmp.w	r3, #327680	; 0x50000
 800213e:	d104      	bne.n	800214a <HAL_RCC_OscConfig+0xa2>
 8002140:	682b      	ldr	r3, [r5, #0]
 8002142:	f443 2380 	orr.w	r3, r3, #262144	; 0x40000
 8002146:	602b      	str	r3, [r5, #0]
 8002148:	e7e3      	b.n	8002112 <HAL_RCC_OscConfig+0x6a>
 800214a:	682a      	ldr	r2, [r5, #0]
 800214c:	f422 3280 	bic.w	r2, r2, #65536	; 0x10000
 8002150:	602a      	str	r2, [r5, #0]
 8002152:	682a      	ldr	r2, [r5, #0]
 8002154:	f422 2280 	bic.w	r2, r2, #262144	; 0x40000
 8002158:	602a      	str	r2, [r5, #0]
 800215a:	2b00      	cmp	r3, #0
 800215c:	d1dd      	bne.n	800211a <HAL_RCC_OscConfig+0x72>
 800215e:	f7ff fb0b 	bl	8001778 <HAL_GetTick>
 8002162:	4606      	mov	r6, r0
 8002164:	682b      	ldr	r3, [r5, #0]
 8002166:	039f      	lsls	r7, r3, #14
 8002168:	d5a7      	bpl.n	80020ba <HAL_RCC_OscConfig+0x12>
 800216a:	f7ff fb05 	bl	8001778 <HAL_GetTick>
 800216e:	1b80      	subs	r0, r0, r6
 8002170:	2864      	cmp	r0, #100	; 0x64
 8002172:	d9f7      	bls.n	8002164 <HAL_RCC_OscConfig+0xbc>
 8002174:	e7dd      	b.n	8002132 <HAL_RCC_OscConfig+0x8a>
 8002176:	4b81      	ldr	r3, [pc, #516]	; (800237c <HAL_RCC_OscConfig+0x2d4>)
 8002178:	689a      	ldr	r2, [r3, #8]
 800217a:	f012 0f0c 	tst.w	r2, #12
 800217e:	d007      	beq.n	8002190 <HAL_RCC_OscConfig+0xe8>
 8002180:	689a      	ldr	r2, [r3, #8]
 8002182:	f002 020c 	and.w	r2, r2, #12
 8002186:	2a08      	cmp	r2, #8
 8002188:	d111      	bne.n	80021ae <HAL_RCC_OscConfig+0x106>
 800218a:	685b      	ldr	r3, [r3, #4]
 800218c:	025e      	lsls	r6, r3, #9
 800218e:	d40e      	bmi.n	80021ae <HAL_RCC_OscConfig+0x106>
 8002190:	4b7a      	ldr	r3, [pc, #488]	; (800237c <HAL_RCC_OscConfig+0x2d4>)
 8002192:	681a      	ldr	r2, [r3, #0]
 8002194:	0795      	lsls	r5, r2, #30
 8002196:	d502      	bpl.n	800219e <HAL_RCC_OscConfig+0xf6>
 8002198:	68e2      	ldr	r2, [r4, #12]
 800219a:	2a01      	cmp	r2, #1
 800219c:	d188      	bne.n	80020b0 <HAL_RCC_OscConfig+0x8>
 800219e:	681a      	ldr	r2, [r3, #0]
 80021a0:	6921      	ldr	r1, [r4, #16]
 80021a2:	f022 02f8 	bic.w	r2, r2, #248	; 0xf8
 80021a6:	ea42 02c1 	orr.w	r2, r2, r1, lsl #3
 80021aa:	601a      	str	r2, [r3, #0]
 80021ac:	e788      	b.n	80020c0 <HAL_RCC_OscConfig+0x18>
 80021ae:	68e2      	ldr	r2, [r4, #12]
 80021b0:	4b73      	ldr	r3, [pc, #460]	; (8002380 <HAL_RCC_OscConfig+0x2d8>)
 80021b2:	b1b2      	cbz	r2, 80021e2 <HAL_RCC_OscConfig+0x13a>
 80021b4:	2201      	movs	r2, #1
 80021b6:	601a      	str	r2, [r3, #0]
 80021b8:	f7ff fade 	bl	8001778 <HAL_GetTick>
 80021bc:	4d6f      	ldr	r5, [pc, #444]	; (800237c <HAL_RCC_OscConfig+0x2d4>)
 80021be:	4606      	mov	r6, r0
 80021c0:	682b      	ldr	r3, [r5, #0]
 80021c2:	0798      	lsls	r0, r3, #30
 80021c4:	d507      	bpl.n	80021d6 <HAL_RCC_OscConfig+0x12e>
 80021c6:	682b      	ldr	r3, [r5, #0]
 80021c8:	6922      	ldr	r2, [r4, #16]
 80021ca:	f023 03f8 	bic.w	r3, r3, #248	; 0xf8
 80021ce:	ea43 03c2 	orr.w	r3, r3, r2, lsl #3
 80021d2:	602b      	str	r3, [r5, #0]
 80021d4:	e774      	b.n	80020c0 <HAL_RCC_OscConfig+0x18>
 80021d6:	f7ff facf 	bl	8001778 <HAL_GetTick>
 80021da:	1b80      	subs	r0, r0, r6
 80021dc:	2802      	cmp	r0, #2
 80021de:	d9ef      	bls.n	80021c0 <HAL_RCC_OscConfig+0x118>
 80021e0:	e7a7      	b.n	8002132 <HAL_RCC_OscConfig+0x8a>
 80021e2:	601a      	str	r2, [r3, #0]
 80021e4:	f7ff fac8 	bl	8001778 <HAL_GetTick>
 80021e8:	4d64      	ldr	r5, [pc, #400]	; (800237c <HAL_RCC_OscConfig+0x2d4>)
 80021ea:	4606      	mov	r6, r0
 80021ec:	682b      	ldr	r3, [r5, #0]
 80021ee:	0799      	lsls	r1, r3, #30
 80021f0:	f57f af66 	bpl.w	80020c0 <HAL_RCC_OscConfig+0x18>
 80021f4:	f7ff fac0 	bl	8001778 <HAL_GetTick>
 80021f8:	1b80      	subs	r0, r0, r6
 80021fa:	2802      	cmp	r0, #2
 80021fc:	d9f6      	bls.n	80021ec <HAL_RCC_OscConfig+0x144>
 80021fe:	e798      	b.n	8002132 <HAL_RCC_OscConfig+0x8a>
 8002200:	6962      	ldr	r2, [r4, #20]
 8002202:	4b60      	ldr	r3, [pc, #384]	; (8002384 <HAL_RCC_OscConfig+0x2dc>)
 8002204:	b17a      	cbz	r2, 8002226 <HAL_RCC_OscConfig+0x17e>
 8002206:	2201      	movs	r2, #1
 8002208:	601a      	str	r2, [r3, #0]
 800220a:	f7ff fab5 	bl	8001778 <HAL_GetTick>
 800220e:	4d5b      	ldr	r5, [pc, #364]	; (800237c <HAL_RCC_OscConfig+0x2d4>)
 8002210:	4606      	mov	r6, r0
 8002212:	6f6b      	ldr	r3, [r5, #116]	; 0x74
 8002214:	079f      	lsls	r7, r3, #30
 8002216:	f53f af57 	bmi.w	80020c8 <HAL_RCC_OscConfig+0x20>
 800221a:	f7ff faad 	bl	8001778 <HAL_GetTick>
 800221e:	1b80      	subs	r0, r0, r6
 8002220:	2802      	cmp	r0, #2
 8002222:	d9f6      	bls.n	8002212 <HAL_RCC_OscConfig+0x16a>
 8002224:	e785      	b.n	8002132 <HAL_RCC_OscConfig+0x8a>
 8002226:	601a      	str	r2, [r3, #0]
 8002228:	f7ff faa6 	bl	8001778 <HAL_GetTick>
 800222c:	4d53      	ldr	r5, [pc, #332]	; (800237c <HAL_RCC_OscConfig+0x2d4>)
 800222e:	4606      	mov	r6, r0
 8002230:	6f6b      	ldr	r3, [r5, #116]	; 0x74
 8002232:	0798      	lsls	r0, r3, #30
 8002234:	f57f af48 	bpl.w	80020c8 <HAL_RCC_OscConfig+0x20>
 8002238:	f7ff fa9e 	bl	8001778 <HAL_GetTick>
 800223c:	1b80      	subs	r0, r0, r6
 800223e:	2802      	cmp	r0, #2
 8002240:	d9f6      	bls.n	8002230 <HAL_RCC_OscConfig+0x188>
 8002242:	e776      	b.n	8002132 <HAL_RCC_OscConfig+0x8a>
 8002244:	4b4d      	ldr	r3, [pc, #308]	; (800237c <HAL_RCC_OscConfig+0x2d4>)
 8002246:	6c1a      	ldr	r2, [r3, #64]	; 0x40
 8002248:	f012 5280 	ands.w	r2, r2, #268435456	; 0x10000000
 800224c:	d128      	bne.n	80022a0 <HAL_RCC_OscConfig+0x1f8>
 800224e:	9201      	str	r2, [sp, #4]
 8002250:	6c1a      	ldr	r2, [r3, #64]	; 0x40
 8002252:	f042 5280 	orr.w	r2, r2, #268435456	; 0x10000000
 8002256:	641a      	str	r2, [r3, #64]	; 0x40
 8002258:	6c1b      	ldr	r3, [r3, #64]	; 0x40
 800225a:	f003 5380 	and.w	r3, r3, #268435456	; 0x10000000
 800225e:	9301      	str	r3, [sp, #4]
 8002260:	9b01      	ldr	r3, [sp, #4]
 8002262:	2601      	movs	r6, #1
 8002264:	4d48      	ldr	r5, [pc, #288]	; (8002388 <HAL_RCC_OscConfig+0x2e0>)
 8002266:	682b      	ldr	r3, [r5, #0]
 8002268:	05d9      	lsls	r1, r3, #23
 800226a:	d51b      	bpl.n	80022a4 <HAL_RCC_OscConfig+0x1fc>
 800226c:	68a3      	ldr	r3, [r4, #8]
 800226e:	4d43      	ldr	r5, [pc, #268]	; (800237c <HAL_RCC_OscConfig+0x2d4>)
 8002270:	2b01      	cmp	r3, #1
 8002272:	d127      	bne.n	80022c4 <HAL_RCC_OscConfig+0x21c>
 8002274:	6f2b      	ldr	r3, [r5, #112]	; 0x70
 8002276:	f043 0301 	orr.w	r3, r3, #1
 800227a:	672b      	str	r3, [r5, #112]	; 0x70
 800227c:	f7ff fa7c 	bl	8001778 <HAL_GetTick>
 8002280:	4d3e      	ldr	r5, [pc, #248]	; (800237c <HAL_RCC_OscConfig+0x2d4>)
 8002282:	4607      	mov	r7, r0
 8002284:	f241 3888 	movw	r8, #5000	; 0x1388
 8002288:	6f2b      	ldr	r3, [r5, #112]	; 0x70
 800228a:	079b      	lsls	r3, r3, #30
 800228c:	d539      	bpl.n	8002302 <HAL_RCC_OscConfig+0x25a>
 800228e:	2e00      	cmp	r6, #0
 8002290:	f43f af1e 	beq.w	80020d0 <HAL_RCC_OscConfig+0x28>
 8002294:	4a39      	ldr	r2, [pc, #228]	; (800237c <HAL_RCC_OscConfig+0x2d4>)
 8002296:	6c13      	ldr	r3, [r2, #64]	; 0x40
 8002298:	f023 5380 	bic.w	r3, r3, #268435456	; 0x10000000
 800229c:	6413      	str	r3, [r2, #64]	; 0x40
 800229e:	e717      	b.n	80020d0 <HAL_RCC_OscConfig+0x28>
 80022a0:	2600      	movs	r6, #0
 80022a2:	e7df      	b.n	8002264 <HAL_RCC_OscConfig+0x1bc>
 80022a4:	682b      	ldr	r3, [r5, #0]
 80022a6:	f443 7380 	orr.w	r3, r3, #256	; 0x100
 80022aa:	602b      	str	r3, [r5, #0]
 80022ac:	f7ff fa64 	bl	8001778 <HAL_GetTick>
 80022b0:	4607      	mov	r7, r0
 80022b2:	682b      	ldr	r3, [r5, #0]
 80022b4:	05da      	lsls	r2, r3, #23
 80022b6:	d4d9      	bmi.n	800226c <HAL_RCC_OscConfig+0x1c4>
 80022b8:	f7ff fa5e 	bl	8001778 <HAL_GetTick>
 80022bc:	1bc0      	subs	r0, r0, r7
 80022be:	2802      	cmp	r0, #2
 80022c0:	d9f7      	bls.n	80022b2 <HAL_RCC_OscConfig+0x20a>
 80022c2:	e736      	b.n	8002132 <HAL_RCC_OscConfig+0x8a>
 80022c4:	2b05      	cmp	r3, #5
 80022c6:	d104      	bne.n	80022d2 <HAL_RCC_OscConfig+0x22a>
 80022c8:	6f2b      	ldr	r3, [r5, #112]	; 0x70
 80022ca:	f043 0304 	orr.w	r3, r3, #4
 80022ce:	672b      	str	r3, [r5, #112]	; 0x70
 80022d0:	e7d0      	b.n	8002274 <HAL_RCC_OscConfig+0x1cc>
 80022d2:	6f2a      	ldr	r2, [r5, #112]	; 0x70
 80022d4:	f022 0201 	bic.w	r2, r2, #1
 80022d8:	672a      	str	r2, [r5, #112]	; 0x70
 80022da:	6f2a      	ldr	r2, [r5, #112]	; 0x70
 80022dc:	f022 0204 	bic.w	r2, r2, #4
 80022e0:	672a      	str	r2, [r5, #112]	; 0x70
 80022e2:	2b00      	cmp	r3, #0
 80022e4:	d1ca      	bne.n	800227c <HAL_RCC_OscConfig+0x1d4>
 80022e6:	f7ff fa47 	bl	8001778 <HAL_GetTick>
 80022ea:	f241 3888 	movw	r8, #5000	; 0x1388
 80022ee:	4607      	mov	r7, r0
 80022f0:	6f2b      	ldr	r3, [r5, #112]	; 0x70
 80022f2:	0798      	lsls	r0, r3, #30
 80022f4:	d5cb      	bpl.n	800228e <HAL_RCC_OscConfig+0x1e6>
 80022f6:	f7ff fa3f 	bl	8001778 <HAL_GetTick>
 80022fa:	1bc0      	subs	r0, r0, r7
 80022fc:	4540      	cmp	r0, r8
 80022fe:	d9f7      	bls.n	80022f0 <HAL_RCC_OscConfig+0x248>
 8002300:	e717      	b.n	8002132 <HAL_RCC_OscConfig+0x8a>
 8002302:	f7ff fa39 	bl	8001778 <HAL_GetTick>
 8002306:	1bc0      	subs	r0, r0, r7
 8002308:	4540      	cmp	r0, r8
 800230a:	d9bd      	bls.n	8002288 <HAL_RCC_OscConfig+0x1e0>
 800230c:	e711      	b.n	8002132 <HAL_RCC_OscConfig+0x8a>
 800230e:	4d1b      	ldr	r5, [pc, #108]	; (800237c <HAL_RCC_OscConfig+0x2d4>)
 8002310:	68ab      	ldr	r3, [r5, #8]
 8002312:	f003 030c 	and.w	r3, r3, #12
 8002316:	2b08      	cmp	r3, #8
 8002318:	d047      	beq.n	80023aa <HAL_RCC_OscConfig+0x302>
 800231a:	4e1c      	ldr	r6, [pc, #112]	; (800238c <HAL_RCC_OscConfig+0x2e4>)
 800231c:	2300      	movs	r3, #0
 800231e:	2802      	cmp	r0, #2
 8002320:	6033      	str	r3, [r6, #0]
 8002322:	d135      	bne.n	8002390 <HAL_RCC_OscConfig+0x2e8>
 8002324:	f7ff fa28 	bl	8001778 <HAL_GetTick>
 8002328:	4607      	mov	r7, r0
 800232a:	682b      	ldr	r3, [r5, #0]
 800232c:	0199      	lsls	r1, r3, #6
 800232e:	d41e      	bmi.n	800236e <HAL_RCC_OscConfig+0x2c6>
 8002330:	e9d4 3207 	ldrd	r3, r2, [r4, #28]
 8002334:	4313      	orrs	r3, r2
 8002336:	6a62      	ldr	r2, [r4, #36]	; 0x24
 8002338:	ea43 1382 	orr.w	r3, r3, r2, lsl #6
 800233c:	6ae2      	ldr	r2, [r4, #44]	; 0x2c
 800233e:	ea43 6302 	orr.w	r3, r3, r2, lsl #24
 8002342:	6aa2      	ldr	r2, [r4, #40]	; 0x28
 8002344:	4c0d      	ldr	r4, [pc, #52]	; (800237c <HAL_RCC_OscConfig+0x2d4>)
 8002346:	0852      	lsrs	r2, r2, #1
 8002348:	3a01      	subs	r2, #1
 800234a:	ea43 4302 	orr.w	r3, r3, r2, lsl #16
 800234e:	606b      	str	r3, [r5, #4]
 8002350:	2301      	movs	r3, #1
 8002352:	6033      	str	r3, [r6, #0]
 8002354:	f7ff fa10 	bl	8001778 <HAL_GetTick>
 8002358:	4605      	mov	r5, r0
 800235a:	6823      	ldr	r3, [r4, #0]
 800235c:	019a      	lsls	r2, r3, #6
 800235e:	f53f aebb 	bmi.w	80020d8 <HAL_RCC_OscConfig+0x30>
 8002362:	f7ff fa09 	bl	8001778 <HAL_GetTick>
 8002366:	1b40      	subs	r0, r0, r5
 8002368:	2802      	cmp	r0, #2
 800236a:	d9f6      	bls.n	800235a <HAL_RCC_OscConfig+0x2b2>
 800236c:	e6e1      	b.n	8002132 <HAL_RCC_OscConfig+0x8a>
 800236e:	f7ff fa03 	bl	8001778 <HAL_GetTick>
 8002372:	1bc0      	subs	r0, r0, r7
 8002374:	2802      	cmp	r0, #2
 8002376:	d9d8      	bls.n	800232a <HAL_RCC_OscConfig+0x282>
 8002378:	e6db      	b.n	8002132 <HAL_RCC_OscConfig+0x8a>
 800237a:	bf00      	nop
 800237c:	40023800 	.word	0x40023800
 8002380:	42470000 	.word	0x42470000
 8002384:	42470e80 	.word	0x42470e80
 8002388:	40007000 	.word	0x40007000
 800238c:	42470060 	.word	0x42470060
 8002390:	f7ff f9f2 	bl	8001778 <HAL_GetTick>
 8002394:	4604      	mov	r4, r0
 8002396:	682b      	ldr	r3, [r5, #0]
 8002398:	019b      	lsls	r3, r3, #6
 800239a:	f57f ae9d 	bpl.w	80020d8 <HAL_RCC_OscConfig+0x30>
 800239e:	f7ff f9eb 	bl	8001778 <HAL_GetTick>
 80023a2:	1b00      	subs	r0, r0, r4
 80023a4:	2802      	cmp	r0, #2
 80023a6:	d9f6      	bls.n	8002396 <HAL_RCC_OscConfig+0x2ee>
 80023a8:	e6c3      	b.n	8002132 <HAL_RCC_OscConfig+0x8a>
 80023aa:	2801      	cmp	r0, #1
 80023ac:	f43f aec2 	beq.w	8002134 <HAL_RCC_OscConfig+0x8c>
 80023b0:	6868      	ldr	r0, [r5, #4]
 80023b2:	69e3      	ldr	r3, [r4, #28]
 80023b4:	f400 0280 	and.w	r2, r0, #4194304	; 0x400000
 80023b8:	429a      	cmp	r2, r3
 80023ba:	f47f ae79 	bne.w	80020b0 <HAL_RCC_OscConfig+0x8>
 80023be:	6a22      	ldr	r2, [r4, #32]
 80023c0:	f000 033f 	and.w	r3, r0, #63	; 0x3f
 80023c4:	4293      	cmp	r3, r2
 80023c6:	f47f ae73 	bne.w	80020b0 <HAL_RCC_OscConfig+0x8>
 80023ca:	6a62      	ldr	r2, [r4, #36]	; 0x24
 80023cc:	f647 73c0 	movw	r3, #32704	; 0x7fc0
 80023d0:	4003      	ands	r3, r0
 80023d2:	4293      	cmp	r3, r2
 80023d4:	f47f ae6c 	bne.w	80020b0 <HAL_RCC_OscConfig+0x8>
 80023d8:	6aa2      	ldr	r2, [r4, #40]	; 0x28
 80023da:	f400 3340 	and.w	r3, r0, #196608	; 0x30000
 80023de:	4293      	cmp	r3, r2
 80023e0:	f47f ae66 	bne.w	80020b0 <HAL_RCC_OscConfig+0x8>
 80023e4:	6ae3      	ldr	r3, [r4, #44]	; 0x2c
 80023e6:	f000 6070 	and.w	r0, r0, #251658240	; 0xf000000
 80023ea:	1ac0      	subs	r0, r0, r3
 80023ec:	bf18      	it	ne
 80023ee:	2001      	movne	r0, #1
 80023f0:	e6a0      	b.n	8002134 <HAL_RCC_OscConfig+0x8c>
 80023f2:	bf00      	nop

080023f4 <HAL_RCC_GetSysClockFreq>:
 80023f4:	4910      	ldr	r1, [pc, #64]	; (8002438 <HAL_RCC_GetSysClockFreq+0x44>)
 80023f6:	b508      	push	{r3, lr}
 80023f8:	688b      	ldr	r3, [r1, #8]
 80023fa:	f003 030c 	and.w	r3, r3, #12
 80023fe:	2b08      	cmp	r3, #8
 8002400:	d118      	bne.n	8002434 <HAL_RCC_GetSysClockFreq+0x40>
 8002402:	684a      	ldr	r2, [r1, #4]
 8002404:	684b      	ldr	r3, [r1, #4]
 8002406:	6849      	ldr	r1, [r1, #4]
 8002408:	480c      	ldr	r0, [pc, #48]	; (800243c <HAL_RCC_GetSysClockFreq+0x48>)
 800240a:	f413 0380 	ands.w	r3, r3, #4194304	; 0x400000
 800240e:	f3c1 1188 	ubfx	r1, r1, #6, #9
 8002412:	bf18      	it	ne
 8002414:	2300      	movne	r3, #0
 8002416:	f002 023f 	and.w	r2, r2, #63	; 0x3f
 800241a:	fba1 0100 	umull	r0, r1, r1, r0
 800241e:	f7fe fbc7 	bl	8000bb0 <__aeabi_uldivmod>
 8002422:	4b05      	ldr	r3, [pc, #20]	; (8002438 <HAL_RCC_GetSysClockFreq+0x44>)
 8002424:	685b      	ldr	r3, [r3, #4]
 8002426:	f3c3 4301 	ubfx	r3, r3, #16, #2
 800242a:	3301      	adds	r3, #1
 800242c:	005b      	lsls	r3, r3, #1
 800242e:	fbb0 f0f3 	udiv	r0, r0, r3
 8002432:	bd08      	pop	{r3, pc}
 8002434:	4801      	ldr	r0, [pc, #4]	; (800243c <HAL_RCC_GetSysClockFreq+0x48>)
 8002436:	e7fc      	b.n	8002432 <HAL_RCC_GetSysClockFreq+0x3e>
 8002438:	40023800 	.word	0x40023800
 800243c:	00f42400 	.word	0x00f42400

08002440 <HAL_RCC_ClockConfig>:
 8002440:	e92d 41f0 	stmdb	sp!, {r4, r5, r6, r7, r8, lr}
 8002444:	460d      	mov	r5, r1
 8002446:	4604      	mov	r4, r0
 8002448:	b910      	cbnz	r0, 8002450 <HAL_RCC_ClockConfig+0x10>
 800244a:	2001      	movs	r0, #1
 800244c:	e8bd 81f0 	ldmia.w	sp!, {r4, r5, r6, r7, r8, pc}
 8002450:	4b43      	ldr	r3, [pc, #268]	; (8002560 <HAL_RCC_ClockConfig+0x120>)
 8002452:	681a      	ldr	r2, [r3, #0]
 8002454:	f002 020f 	and.w	r2, r2, #15
 8002458:	428a      	cmp	r2, r1
 800245a:	d328      	bcc.n	80024ae <HAL_RCC_ClockConfig+0x6e>
 800245c:	6821      	ldr	r1, [r4, #0]
 800245e:	078f      	lsls	r7, r1, #30
 8002460:	d42d      	bmi.n	80024be <HAL_RCC_ClockConfig+0x7e>
 8002462:	07c8      	lsls	r0, r1, #31
 8002464:	d440      	bmi.n	80024e8 <HAL_RCC_ClockConfig+0xa8>
 8002466:	4b3e      	ldr	r3, [pc, #248]	; (8002560 <HAL_RCC_ClockConfig+0x120>)
 8002468:	681a      	ldr	r2, [r3, #0]
 800246a:	f002 020f 	and.w	r2, r2, #15
 800246e:	42aa      	cmp	r2, r5
 8002470:	d865      	bhi.n	800253e <HAL_RCC_ClockConfig+0xfe>
 8002472:	6822      	ldr	r2, [r4, #0]
 8002474:	0751      	lsls	r1, r2, #29
 8002476:	d46b      	bmi.n	8002550 <HAL_RCC_ClockConfig+0x110>
 8002478:	0713      	lsls	r3, r2, #28
 800247a:	d507      	bpl.n	800248c <HAL_RCC_ClockConfig+0x4c>
 800247c:	4a39      	ldr	r2, [pc, #228]	; (8002564 <HAL_RCC_ClockConfig+0x124>)
 800247e:	6921      	ldr	r1, [r4, #16]
 8002480:	6893      	ldr	r3, [r2, #8]
 8002482:	f423 4360 	bic.w	r3, r3, #57344	; 0xe000
 8002486:	ea43 03c1 	orr.w	r3, r3, r1, lsl #3
 800248a:	6093      	str	r3, [r2, #8]
 800248c:	f7ff ffb2 	bl	80023f4 <HAL_RCC_GetSysClockFreq>
 8002490:	4b34      	ldr	r3, [pc, #208]	; (8002564 <HAL_RCC_ClockConfig+0x124>)
 8002492:	4a35      	ldr	r2, [pc, #212]	; (8002568 <HAL_RCC_ClockConfig+0x128>)
 8002494:	689b      	ldr	r3, [r3, #8]
 8002496:	f3c3 1303 	ubfx	r3, r3, #4, #4
 800249a:	5cd3      	ldrb	r3, [r2, r3]
 800249c:	40d8      	lsrs	r0, r3
 800249e:	4b33      	ldr	r3, [pc, #204]	; (800256c <HAL_RCC_ClockConfig+0x12c>)
 80024a0:	6018      	str	r0, [r3, #0]
 80024a2:	4b33      	ldr	r3, [pc, #204]	; (8002570 <HAL_RCC_ClockConfig+0x130>)
 80024a4:	6818      	ldr	r0, [r3, #0]
 80024a6:	f7ff f91d 	bl	80016e4 <HAL_InitTick>
 80024aa:	2000      	movs	r0, #0
 80024ac:	e7ce      	b.n	800244c <HAL_RCC_ClockConfig+0xc>
 80024ae:	b2ca      	uxtb	r2, r1
 80024b0:	701a      	strb	r2, [r3, #0]
 80024b2:	681b      	ldr	r3, [r3, #0]
 80024b4:	f003 030f 	and.w	r3, r3, #15
 80024b8:	428b      	cmp	r3, r1
 80024ba:	d1c6      	bne.n	800244a <HAL_RCC_ClockConfig+0xa>
 80024bc:	e7ce      	b.n	800245c <HAL_RCC_ClockConfig+0x1c>
 80024be:	4b29      	ldr	r3, [pc, #164]	; (8002564 <HAL_RCC_ClockConfig+0x124>)
 80024c0:	f011 0f04 	tst.w	r1, #4
 80024c4:	bf1e      	ittt	ne
 80024c6:	689a      	ldrne	r2, [r3, #8]
 80024c8:	f442 52e0 	orrne.w	r2, r2, #7168	; 0x1c00
 80024cc:	609a      	strne	r2, [r3, #8]
 80024ce:	070e      	lsls	r6, r1, #28
 80024d0:	bf42      	ittt	mi
 80024d2:	689a      	ldrmi	r2, [r3, #8]
 80024d4:	f442 4260 	orrmi.w	r2, r2, #57344	; 0xe000
 80024d8:	609a      	strmi	r2, [r3, #8]
 80024da:	689a      	ldr	r2, [r3, #8]
 80024dc:	68a0      	ldr	r0, [r4, #8]
 80024de:	f022 02f0 	bic.w	r2, r2, #240	; 0xf0
 80024e2:	4302      	orrs	r2, r0
 80024e4:	609a      	str	r2, [r3, #8]
 80024e6:	e7bc      	b.n	8002462 <HAL_RCC_ClockConfig+0x22>
 80024e8:	6862      	ldr	r2, [r4, #4]
 80024ea:	4b1e      	ldr	r3, [pc, #120]	; (8002564 <HAL_RCC_ClockConfig+0x124>)
 80024ec:	2a01      	cmp	r2, #1
 80024ee:	d11c      	bne.n	800252a <HAL_RCC_ClockConfig+0xea>
 80024f0:	681b      	ldr	r3, [r3, #0]
 80024f2:	f413 3f00 	tst.w	r3, #131072	; 0x20000
 80024f6:	d0a8      	beq.n	800244a <HAL_RCC_ClockConfig+0xa>
 80024f8:	4e1a      	ldr	r6, [pc, #104]	; (8002564 <HAL_RCC_ClockConfig+0x124>)
 80024fa:	68b3      	ldr	r3, [r6, #8]
 80024fc:	f023 0303 	bic.w	r3, r3, #3
 8002500:	4313      	orrs	r3, r2
 8002502:	60b3      	str	r3, [r6, #8]
 8002504:	f7ff f938 	bl	8001778 <HAL_GetTick>
 8002508:	f241 3888 	movw	r8, #5000	; 0x1388
 800250c:	4607      	mov	r7, r0
 800250e:	68b3      	ldr	r3, [r6, #8]
 8002510:	6862      	ldr	r2, [r4, #4]
 8002512:	f003 030c 	and.w	r3, r3, #12
 8002516:	ebb3 0f82 	cmp.w	r3, r2, lsl #2
 800251a:	d0a4      	beq.n	8002466 <HAL_RCC_ClockConfig+0x26>
 800251c:	f7ff f92c 	bl	8001778 <HAL_GetTick>
 8002520:	1bc0      	subs	r0, r0, r7
 8002522:	4540      	cmp	r0, r8
 8002524:	d9f3      	bls.n	800250e <HAL_RCC_ClockConfig+0xce>
 8002526:	2003      	movs	r0, #3
 8002528:	e790      	b.n	800244c <HAL_RCC_ClockConfig+0xc>
 800252a:	1e91      	subs	r1, r2, #2
 800252c:	2901      	cmp	r1, #1
 800252e:	681b      	ldr	r3, [r3, #0]
 8002530:	d802      	bhi.n	8002538 <HAL_RCC_ClockConfig+0xf8>
 8002532:	f013 7f00 	tst.w	r3, #33554432	; 0x2000000
 8002536:	e7de      	b.n	80024f6 <HAL_RCC_ClockConfig+0xb6>
 8002538:	f013 0f02 	tst.w	r3, #2
 800253c:	e7db      	b.n	80024f6 <HAL_RCC_ClockConfig+0xb6>
 800253e:	b2ea      	uxtb	r2, r5
 8002540:	701a      	strb	r2, [r3, #0]
 8002542:	681b      	ldr	r3, [r3, #0]
 8002544:	f003 030f 	and.w	r3, r3, #15
 8002548:	42ab      	cmp	r3, r5
 800254a:	f47f af7e 	bne.w	800244a <HAL_RCC_ClockConfig+0xa>
 800254e:	e790      	b.n	8002472 <HAL_RCC_ClockConfig+0x32>
 8002550:	4904      	ldr	r1, [pc, #16]	; (8002564 <HAL_RCC_ClockConfig+0x124>)
 8002552:	68e0      	ldr	r0, [r4, #12]
 8002554:	688b      	ldr	r3, [r1, #8]
 8002556:	f423 53e0 	bic.w	r3, r3, #7168	; 0x1c00
 800255a:	4303      	orrs	r3, r0
 800255c:	608b      	str	r3, [r1, #8]
 800255e:	e78b      	b.n	8002478 <HAL_RCC_ClockConfig+0x38>
 8002560:	40023c00 	.word	0x40023c00
 8002564:	40023800 	.word	0x40023800
 8002568:	08004928 	.word	0x08004928
 800256c:	20000000 	.word	0x20000000
 8002570:	20000008 	.word	0x20000008

08002574 <HAL_RCC_GetPCLK1Freq>:
 8002574:	4b04      	ldr	r3, [pc, #16]	; (8002588 <HAL_RCC_GetPCLK1Freq+0x14>)
 8002576:	4a05      	ldr	r2, [pc, #20]	; (800258c <HAL_RCC_GetPCLK1Freq+0x18>)
 8002578:	689b      	ldr	r3, [r3, #8]
 800257a:	f3c3 2382 	ubfx	r3, r3, #10, #3
 800257e:	5cd3      	ldrb	r3, [r2, r3]
 8002580:	4a03      	ldr	r2, [pc, #12]	; (8002590 <HAL_RCC_GetPCLK1Freq+0x1c>)
 8002582:	6810      	ldr	r0, [r2, #0]
 8002584:	40d8      	lsrs	r0, r3
 8002586:	4770      	bx	lr
 8002588:	40023800 	.word	0x40023800
 800258c:	08004938 	.word	0x08004938
 8002590:	20000000 	.word	0x20000000

08002594 <HAL_RCC_GetPCLK2Freq>:
 8002594:	4b04      	ldr	r3, [pc, #16]	; (80025a8 <HAL_RCC_GetPCLK2Freq+0x14>)
 8002596:	4a05      	ldr	r2, [pc, #20]	; (80025ac <HAL_RCC_GetPCLK2Freq+0x18>)
 8002598:	689b      	ldr	r3, [r3, #8]
 800259a:	f3c3 3342 	ubfx	r3, r3, #13, #3
 800259e:	5cd3      	ldrb	r3, [r2, r3]
 80025a0:	4a03      	ldr	r2, [pc, #12]	; (80025b0 <HAL_RCC_GetPCLK2Freq+0x1c>)
 80025a2:	6810      	ldr	r0, [r2, #0]
 80025a4:	40d8      	lsrs	r0, r3
 80025a6:	4770      	bx	lr
 80025a8:	40023800 	.word	0x40023800
 80025ac:	08004938 	.word	0x08004938
 80025b0:	20000000 	.word	0x20000000

080025b4 <HAL_SPI_Init>:
 80025b4:	b510      	push	{r4, lr}
 80025b6:	4604      	mov	r4, r0
 80025b8:	2800      	cmp	r0, #0
 80025ba:	d036      	beq.n	800262a <HAL_SPI_Init+0x76>
 80025bc:	2300      	movs	r3, #0
 80025be:	6283      	str	r3, [r0, #40]	; 0x28
 80025c0:	f890 3051 	ldrb.w	r3, [r0, #81]	; 0x51
 80025c4:	f003 02ff 	and.w	r2, r3, #255	; 0xff
 80025c8:	b91b      	cbnz	r3, 80025d2 <HAL_SPI_Init+0x1e>
 80025ca:	f880 2050 	strb.w	r2, [r0, #80]	; 0x50
 80025ce:	f7fe ff3f 	bl	8001450 <HAL_SPI_MspInit>
 80025d2:	6821      	ldr	r1, [r4, #0]
 80025d4:	69a2      	ldr	r2, [r4, #24]
 80025d6:	2302      	movs	r3, #2
 80025d8:	f884 3051 	strb.w	r3, [r4, #81]	; 0x51
 80025dc:	680b      	ldr	r3, [r1, #0]
 80025de:	f023 0340 	bic.w	r3, r3, #64	; 0x40
 80025e2:	600b      	str	r3, [r1, #0]
 80025e4:	e9d4 3001 	ldrd	r3, r0, [r4, #4]
 80025e8:	4303      	orrs	r3, r0
 80025ea:	68e0      	ldr	r0, [r4, #12]
 80025ec:	4303      	orrs	r3, r0
 80025ee:	6920      	ldr	r0, [r4, #16]
 80025f0:	4303      	orrs	r3, r0
 80025f2:	6960      	ldr	r0, [r4, #20]
 80025f4:	4303      	orrs	r3, r0
 80025f6:	69e0      	ldr	r0, [r4, #28]
 80025f8:	4303      	orrs	r3, r0
 80025fa:	6a20      	ldr	r0, [r4, #32]
 80025fc:	4303      	orrs	r3, r0
 80025fe:	6aa0      	ldr	r0, [r4, #40]	; 0x28
 8002600:	4303      	orrs	r3, r0
 8002602:	f402 7000 	and.w	r0, r2, #512	; 0x200
 8002606:	4303      	orrs	r3, r0
 8002608:	600b      	str	r3, [r1, #0]
 800260a:	0c12      	lsrs	r2, r2, #16
 800260c:	6a63      	ldr	r3, [r4, #36]	; 0x24
 800260e:	f002 0204 	and.w	r2, r2, #4
 8002612:	431a      	orrs	r2, r3
 8002614:	604a      	str	r2, [r1, #4]
 8002616:	69cb      	ldr	r3, [r1, #28]
 8002618:	f423 6300 	bic.w	r3, r3, #2048	; 0x800
 800261c:	61cb      	str	r3, [r1, #28]
 800261e:	2000      	movs	r0, #0
 8002620:	2301      	movs	r3, #1
 8002622:	6560      	str	r0, [r4, #84]	; 0x54
 8002624:	f884 3051 	strb.w	r3, [r4, #81]	; 0x51
 8002628:	bd10      	pop	{r4, pc}
 800262a:	2001      	movs	r0, #1
 800262c:	e7fc      	b.n	8002628 <HAL_SPI_Init+0x74>

0800262e <HAL_SPI_ErrorCallback>:
 800262e:	4770      	bx	lr

08002630 <HAL_SPI_IRQHandler>:
 8002630:	b57f      	push	{r0, r1, r2, r3, r4, r5, r6, lr}
 8002632:	6803      	ldr	r3, [r0, #0]
 8002634:	685d      	ldr	r5, [r3, #4]
 8002636:	689a      	ldr	r2, [r3, #8]
 8002638:	0991      	lsrs	r1, r2, #6
 800263a:	f011 0601 	ands.w	r6, r1, #1
 800263e:	4604      	mov	r4, r0
 8002640:	d10a      	bne.n	8002658 <HAL_SPI_IRQHandler+0x28>
 8002642:	f012 0f01 	tst.w	r2, #1
 8002646:	d007      	beq.n	8002658 <HAL_SPI_IRQHandler+0x28>
 8002648:	f015 0f40 	tst.w	r5, #64	; 0x40
 800264c:	d004      	beq.n	8002658 <HAL_SPI_IRQHandler+0x28>
 800264e:	6c03      	ldr	r3, [r0, #64]	; 0x40
 8002650:	b004      	add	sp, #16
 8002652:	e8bd 4070 	ldmia.w	sp!, {r4, r5, r6, lr}
 8002656:	4718      	bx	r3
 8002658:	0790      	lsls	r0, r2, #30
 800265a:	d504      	bpl.n	8002666 <HAL_SPI_IRQHandler+0x36>
 800265c:	0628      	lsls	r0, r5, #24
 800265e:	d502      	bpl.n	8002666 <HAL_SPI_IRQHandler+0x36>
 8002660:	6c63      	ldr	r3, [r4, #68]	; 0x44
 8002662:	4620      	mov	r0, r4
 8002664:	e7f4      	b.n	8002650 <HAL_SPI_IRQHandler+0x20>
 8002666:	0950      	lsrs	r0, r2, #5
 8002668:	4301      	orrs	r1, r0
 800266a:	07c9      	lsls	r1, r1, #31
 800266c:	d401      	bmi.n	8002672 <HAL_SPI_IRQHandler+0x42>
 800266e:	05d1      	lsls	r1, r2, #23
 8002670:	d558      	bpl.n	8002724 <HAL_SPI_IRQHandler+0xf4>
 8002672:	06a9      	lsls	r1, r5, #26
 8002674:	d556      	bpl.n	8002724 <HAL_SPI_IRQHandler+0xf4>
 8002676:	b17e      	cbz	r6, 8002698 <HAL_SPI_IRQHandler+0x68>
 8002678:	f894 1051 	ldrb.w	r1, [r4, #81]	; 0x51
 800267c:	2903      	cmp	r1, #3
 800267e:	f04f 0600 	mov.w	r6, #0
 8002682:	d049      	beq.n	8002718 <HAL_SPI_IRQHandler+0xe8>
 8002684:	6d61      	ldr	r1, [r4, #84]	; 0x54
 8002686:	f041 0104 	orr.w	r1, r1, #4
 800268a:	6561      	str	r1, [r4, #84]	; 0x54
 800268c:	9600      	str	r6, [sp, #0]
 800268e:	68d9      	ldr	r1, [r3, #12]
 8002690:	9100      	str	r1, [sp, #0]
 8002692:	6899      	ldr	r1, [r3, #8]
 8002694:	9100      	str	r1, [sp, #0]
 8002696:	9900      	ldr	r1, [sp, #0]
 8002698:	07c0      	lsls	r0, r0, #31
 800269a:	d50c      	bpl.n	80026b6 <HAL_SPI_IRQHandler+0x86>
 800269c:	6d61      	ldr	r1, [r4, #84]	; 0x54
 800269e:	f041 0101 	orr.w	r1, r1, #1
 80026a2:	6561      	str	r1, [r4, #84]	; 0x54
 80026a4:	2100      	movs	r1, #0
 80026a6:	9102      	str	r1, [sp, #8]
 80026a8:	6899      	ldr	r1, [r3, #8]
 80026aa:	9102      	str	r1, [sp, #8]
 80026ac:	6819      	ldr	r1, [r3, #0]
 80026ae:	f021 0140 	bic.w	r1, r1, #64	; 0x40
 80026b2:	6019      	str	r1, [r3, #0]
 80026b4:	9902      	ldr	r1, [sp, #8]
 80026b6:	05d1      	lsls	r1, r2, #23
 80026b8:	d508      	bpl.n	80026cc <HAL_SPI_IRQHandler+0x9c>
 80026ba:	6d62      	ldr	r2, [r4, #84]	; 0x54
 80026bc:	f042 0208 	orr.w	r2, r2, #8
 80026c0:	6562      	str	r2, [r4, #84]	; 0x54
 80026c2:	2200      	movs	r2, #0
 80026c4:	9203      	str	r2, [sp, #12]
 80026c6:	689a      	ldr	r2, [r3, #8]
 80026c8:	9203      	str	r2, [sp, #12]
 80026ca:	9a03      	ldr	r2, [sp, #12]
 80026cc:	6d62      	ldr	r2, [r4, #84]	; 0x54
 80026ce:	b34a      	cbz	r2, 8002724 <HAL_SPI_IRQHandler+0xf4>
 80026d0:	685a      	ldr	r2, [r3, #4]
 80026d2:	f022 02e0 	bic.w	r2, r2, #224	; 0xe0
 80026d6:	605a      	str	r2, [r3, #4]
 80026d8:	2201      	movs	r2, #1
 80026da:	f884 2051 	strb.w	r2, [r4, #81]	; 0x51
 80026de:	07aa      	lsls	r2, r5, #30
 80026e0:	d022      	beq.n	8002728 <HAL_SPI_IRQHandler+0xf8>
 80026e2:	685a      	ldr	r2, [r3, #4]
 80026e4:	6ce0      	ldr	r0, [r4, #76]	; 0x4c
 80026e6:	f022 0203 	bic.w	r2, r2, #3
 80026ea:	605a      	str	r2, [r3, #4]
 80026ec:	b140      	cbz	r0, 8002700 <HAL_SPI_IRQHandler+0xd0>
 80026ee:	4b10      	ldr	r3, [pc, #64]	; (8002730 <HAL_SPI_IRQHandler+0x100>)
 80026f0:	6503      	str	r3, [r0, #80]	; 0x50
 80026f2:	f7ff fa89 	bl	8001c08 <HAL_DMA_Abort_IT>
 80026f6:	b118      	cbz	r0, 8002700 <HAL_SPI_IRQHandler+0xd0>
 80026f8:	6d63      	ldr	r3, [r4, #84]	; 0x54
 80026fa:	f043 0340 	orr.w	r3, r3, #64	; 0x40
 80026fe:	6563      	str	r3, [r4, #84]	; 0x54
 8002700:	6ca0      	ldr	r0, [r4, #72]	; 0x48
 8002702:	b178      	cbz	r0, 8002724 <HAL_SPI_IRQHandler+0xf4>
 8002704:	4b0a      	ldr	r3, [pc, #40]	; (8002730 <HAL_SPI_IRQHandler+0x100>)
 8002706:	6503      	str	r3, [r0, #80]	; 0x50
 8002708:	f7ff fa7e 	bl	8001c08 <HAL_DMA_Abort_IT>
 800270c:	b150      	cbz	r0, 8002724 <HAL_SPI_IRQHandler+0xf4>
 800270e:	6d63      	ldr	r3, [r4, #84]	; 0x54
 8002710:	f043 0340 	orr.w	r3, r3, #64	; 0x40
 8002714:	6563      	str	r3, [r4, #84]	; 0x54
 8002716:	e005      	b.n	8002724 <HAL_SPI_IRQHandler+0xf4>
 8002718:	9601      	str	r6, [sp, #4]
 800271a:	68da      	ldr	r2, [r3, #12]
 800271c:	9201      	str	r2, [sp, #4]
 800271e:	689b      	ldr	r3, [r3, #8]
 8002720:	9301      	str	r3, [sp, #4]
 8002722:	9b01      	ldr	r3, [sp, #4]
 8002724:	b004      	add	sp, #16
 8002726:	bd70      	pop	{r4, r5, r6, pc}
 8002728:	4620      	mov	r0, r4
 800272a:	f7ff ff80 	bl	800262e <HAL_SPI_ErrorCallback>
 800272e:	e7f9      	b.n	8002724 <HAL_SPI_IRQHandler+0xf4>
 8002730:	08002735 	.word	0x08002735

08002734 <SPI_DMAAbortOnError>:
 8002734:	b508      	push	{r3, lr}
 8002736:	6b80      	ldr	r0, [r0, #56]	; 0x38
 8002738:	2300      	movs	r3, #0
 800273a:	87c3      	strh	r3, [r0, #62]	; 0x3e
 800273c:	86c3      	strh	r3, [r0, #54]	; 0x36
 800273e:	f7ff ff76 	bl	800262e <HAL_SPI_ErrorCallback>
 8002742:	bd08      	pop	{r3, pc}

08002744 <HAL_TIM_Base_Start_IT>:
 8002744:	6803      	ldr	r3, [r0, #0]
 8002746:	68da      	ldr	r2, [r3, #12]
 8002748:	f042 0201 	orr.w	r2, r2, #1
 800274c:	60da      	str	r2, [r3, #12]
 800274e:	689a      	ldr	r2, [r3, #8]
 8002750:	f002 0207 	and.w	r2, r2, #7
 8002754:	2a06      	cmp	r2, #6
 8002756:	bf1e      	ittt	ne
 8002758:	681a      	ldrne	r2, [r3, #0]
 800275a:	f042 0201 	orrne.w	r2, r2, #1
 800275e:	601a      	strne	r2, [r3, #0]
 8002760:	2000      	movs	r0, #0
 8002762:	4770      	bx	lr

08002764 <HAL_TIM_PeriodElapsedCallback>:
 8002764:	4770      	bx	lr

08002766 <HAL_TIM_OC_DelayElapsedCallback>:
 8002766:	4770      	bx	lr

08002768 <HAL_TIM_IC_CaptureCallback>:
 8002768:	4770      	bx	lr

0800276a <HAL_TIM_PWM_PulseFinishedCallback>:
 800276a:	4770      	bx	lr

0800276c <HAL_TIM_TriggerCallback>:
 800276c:	4770      	bx	lr

0800276e <HAL_TIM_IRQHandler>:
 800276e:	6803      	ldr	r3, [r0, #0]
 8002770:	691a      	ldr	r2, [r3, #16]
 8002772:	0791      	lsls	r1, r2, #30
 8002774:	b510      	push	{r4, lr}
 8002776:	4604      	mov	r4, r0
 8002778:	d50e      	bpl.n	8002798 <HAL_TIM_IRQHandler+0x2a>
 800277a:	68da      	ldr	r2, [r3, #12]
 800277c:	0792      	lsls	r2, r2, #30
 800277e:	d50b      	bpl.n	8002798 <HAL_TIM_IRQHandler+0x2a>
 8002780:	f06f 0202 	mvn.w	r2, #2
 8002784:	611a      	str	r2, [r3, #16]
 8002786:	699b      	ldr	r3, [r3, #24]
 8002788:	2201      	movs	r2, #1
 800278a:	079b      	lsls	r3, r3, #30
 800278c:	7702      	strb	r2, [r0, #28]
 800278e:	d077      	beq.n	8002880 <HAL_TIM_IRQHandler+0x112>
 8002790:	f7ff ffea 	bl	8002768 <HAL_TIM_IC_CaptureCallback>
 8002794:	2300      	movs	r3, #0
 8002796:	7723      	strb	r3, [r4, #28]
 8002798:	6823      	ldr	r3, [r4, #0]
 800279a:	691a      	ldr	r2, [r3, #16]
 800279c:	0750      	lsls	r0, r2, #29
 800279e:	d510      	bpl.n	80027c2 <HAL_TIM_IRQHandler+0x54>
 80027a0:	68da      	ldr	r2, [r3, #12]
 80027a2:	0751      	lsls	r1, r2, #29
 80027a4:	d50d      	bpl.n	80027c2 <HAL_TIM_IRQHandler+0x54>
 80027a6:	f06f 0204 	mvn.w	r2, #4
 80027aa:	611a      	str	r2, [r3, #16]
 80027ac:	699b      	ldr	r3, [r3, #24]
 80027ae:	2202      	movs	r2, #2
 80027b0:	f413 7f40 	tst.w	r3, #768	; 0x300
 80027b4:	7722      	strb	r2, [r4, #28]
 80027b6:	4620      	mov	r0, r4
 80027b8:	d068      	beq.n	800288c <HAL_TIM_IRQHandler+0x11e>
 80027ba:	f7ff ffd5 	bl	8002768 <HAL_TIM_IC_CaptureCallback>
 80027be:	2300      	movs	r3, #0
 80027c0:	7723      	strb	r3, [r4, #28]
 80027c2:	6823      	ldr	r3, [r4, #0]
 80027c4:	691a      	ldr	r2, [r3, #16]
 80027c6:	0712      	lsls	r2, r2, #28
 80027c8:	d50f      	bpl.n	80027ea <HAL_TIM_IRQHandler+0x7c>
 80027ca:	68da      	ldr	r2, [r3, #12]
 80027cc:	0710      	lsls	r0, r2, #28
 80027ce:	d50c      	bpl.n	80027ea <HAL_TIM_IRQHandler+0x7c>
 80027d0:	f06f 0208 	mvn.w	r2, #8
 80027d4:	611a      	str	r2, [r3, #16]
 80027d6:	69db      	ldr	r3, [r3, #28]
 80027d8:	2204      	movs	r2, #4
 80027da:	0799      	lsls	r1, r3, #30
 80027dc:	7722      	strb	r2, [r4, #28]
 80027de:	4620      	mov	r0, r4
 80027e0:	d05a      	beq.n	8002898 <HAL_TIM_IRQHandler+0x12a>
 80027e2:	f7ff ffc1 	bl	8002768 <HAL_TIM_IC_CaptureCallback>
 80027e6:	2300      	movs	r3, #0
 80027e8:	7723      	strb	r3, [r4, #28]
 80027ea:	6823      	ldr	r3, [r4, #0]
 80027ec:	691a      	ldr	r2, [r3, #16]
 80027ee:	06d2      	lsls	r2, r2, #27
 80027f0:	d510      	bpl.n	8002814 <HAL_TIM_IRQHandler+0xa6>
 80027f2:	68da      	ldr	r2, [r3, #12]
 80027f4:	06d0      	lsls	r0, r2, #27
 80027f6:	d50d      	bpl.n	8002814 <HAL_TIM_IRQHandler+0xa6>
 80027f8:	f06f 0210 	mvn.w	r2, #16
 80027fc:	611a      	str	r2, [r3, #16]
 80027fe:	69db      	ldr	r3, [r3, #28]
 8002800:	2208      	movs	r2, #8
 8002802:	f413 7f40 	tst.w	r3, #768	; 0x300
 8002806:	7722      	strb	r2, [r4, #28]
 8002808:	4620      	mov	r0, r4
 800280a:	d04b      	beq.n	80028a4 <HAL_TIM_IRQHandler+0x136>
 800280c:	f7ff ffac 	bl	8002768 <HAL_TIM_IC_CaptureCallback>
 8002810:	2300      	movs	r3, #0
 8002812:	7723      	strb	r3, [r4, #28]
 8002814:	6823      	ldr	r3, [r4, #0]
 8002816:	691a      	ldr	r2, [r3, #16]
 8002818:	07d1      	lsls	r1, r2, #31
 800281a:	d508      	bpl.n	800282e <HAL_TIM_IRQHandler+0xc0>
 800281c:	68da      	ldr	r2, [r3, #12]
 800281e:	07d2      	lsls	r2, r2, #31
 8002820:	d505      	bpl.n	800282e <HAL_TIM_IRQHandler+0xc0>
 8002822:	f06f 0201 	mvn.w	r2, #1
 8002826:	611a      	str	r2, [r3, #16]
 8002828:	4620      	mov	r0, r4
 800282a:	f7ff ff9b 	bl	8002764 <HAL_TIM_PeriodElapsedCallback>
 800282e:	6823      	ldr	r3, [r4, #0]
 8002830:	691a      	ldr	r2, [r3, #16]
 8002832:	0610      	lsls	r0, r2, #24
 8002834:	d508      	bpl.n	8002848 <HAL_TIM_IRQHandler+0xda>
 8002836:	68da      	ldr	r2, [r3, #12]
 8002838:	0611      	lsls	r1, r2, #24
 800283a:	d505      	bpl.n	8002848 <HAL_TIM_IRQHandler+0xda>
 800283c:	f06f 0280 	mvn.w	r2, #128	; 0x80
 8002840:	611a      	str	r2, [r3, #16]
 8002842:	4620      	mov	r0, r4
 8002844:	f000 f977 	bl	8002b36 <HAL_TIMEx_BreakCallback>
 8002848:	6823      	ldr	r3, [r4, #0]
 800284a:	691a      	ldr	r2, [r3, #16]
 800284c:	0652      	lsls	r2, r2, #25
 800284e:	d508      	bpl.n	8002862 <HAL_TIM_IRQHandler+0xf4>
 8002850:	68da      	ldr	r2, [r3, #12]
 8002852:	0650      	lsls	r0, r2, #25
 8002854:	d505      	bpl.n	8002862 <HAL_TIM_IRQHandler+0xf4>
 8002856:	f06f 0240 	mvn.w	r2, #64	; 0x40
 800285a:	611a      	str	r2, [r3, #16]
 800285c:	4620      	mov	r0, r4
 800285e:	f7ff ff85 	bl	800276c <HAL_TIM_TriggerCallback>
 8002862:	6823      	ldr	r3, [r4, #0]
 8002864:	691a      	ldr	r2, [r3, #16]
 8002866:	0691      	lsls	r1, r2, #26
 8002868:	d522      	bpl.n	80028b0 <HAL_TIM_IRQHandler+0x142>
 800286a:	68da      	ldr	r2, [r3, #12]
 800286c:	0692      	lsls	r2, r2, #26
 800286e:	d51f      	bpl.n	80028b0 <HAL_TIM_IRQHandler+0x142>
 8002870:	f06f 0220 	mvn.w	r2, #32
 8002874:	4620      	mov	r0, r4
 8002876:	611a      	str	r2, [r3, #16]
 8002878:	e8bd 4010 	ldmia.w	sp!, {r4, lr}
 800287c:	f000 b95a 	b.w	8002b34 <HAL_TIMEx_CommutCallback>
 8002880:	f7ff ff71 	bl	8002766 <HAL_TIM_OC_DelayElapsedCallback>
 8002884:	4620      	mov	r0, r4
 8002886:	f7ff ff70 	bl	800276a <HAL_TIM_PWM_PulseFinishedCallback>
 800288a:	e783      	b.n	8002794 <HAL_TIM_IRQHandler+0x26>
 800288c:	f7ff ff6b 	bl	8002766 <HAL_TIM_OC_DelayElapsedCallback>
 8002890:	4620      	mov	r0, r4
 8002892:	f7ff ff6a 	bl	800276a <HAL_TIM_PWM_PulseFinishedCallback>
 8002896:	e792      	b.n	80027be <HAL_TIM_IRQHandler+0x50>
 8002898:	f7ff ff65 	bl	8002766 <HAL_TIM_OC_DelayElapsedCallback>
 800289c:	4620      	mov	r0, r4
 800289e:	f7ff ff64 	bl	800276a <HAL_TIM_PWM_PulseFinishedCallback>
 80028a2:	e7a0      	b.n	80027e6 <HAL_TIM_IRQHandler+0x78>
 80028a4:	f7ff ff5f 	bl	8002766 <HAL_TIM_OC_DelayElapsedCallback>
 80028a8:	4620      	mov	r0, r4
 80028aa:	f7ff ff5e 	bl	800276a <HAL_TIM_PWM_PulseFinishedCallback>
 80028ae:	e7af      	b.n	8002810 <HAL_TIM_IRQHandler+0xa2>
 80028b0:	bd10      	pop	{r4, pc}
	...

080028b4 <TIM_Base_SetConfig>:
 80028b4:	4a24      	ldr	r2, [pc, #144]	; (8002948 <TIM_Base_SetConfig+0x94>)
 80028b6:	6803      	ldr	r3, [r0, #0]
 80028b8:	4290      	cmp	r0, r2
 80028ba:	d00e      	beq.n	80028da <TIM_Base_SetConfig+0x26>
 80028bc:	f1b0 4f80 	cmp.w	r0, #1073741824	; 0x40000000
 80028c0:	d00b      	beq.n	80028da <TIM_Base_SetConfig+0x26>
 80028c2:	f5a2 427c 	sub.w	r2, r2, #64512	; 0xfc00
 80028c6:	4290      	cmp	r0, r2
 80028c8:	d007      	beq.n	80028da <TIM_Base_SetConfig+0x26>
 80028ca:	f502 6280 	add.w	r2, r2, #1024	; 0x400
 80028ce:	4290      	cmp	r0, r2
 80028d0:	d003      	beq.n	80028da <TIM_Base_SetConfig+0x26>
 80028d2:	f502 6280 	add.w	r2, r2, #1024	; 0x400
 80028d6:	4290      	cmp	r0, r2
 80028d8:	d115      	bne.n	8002906 <TIM_Base_SetConfig+0x52>
 80028da:	684a      	ldr	r2, [r1, #4]
 80028dc:	f023 0370 	bic.w	r3, r3, #112	; 0x70
 80028e0:	4313      	orrs	r3, r2
 80028e2:	4a19      	ldr	r2, [pc, #100]	; (8002948 <TIM_Base_SetConfig+0x94>)
 80028e4:	4290      	cmp	r0, r2
 80028e6:	d019      	beq.n	800291c <TIM_Base_SetConfig+0x68>
 80028e8:	f1b0 4f80 	cmp.w	r0, #1073741824	; 0x40000000
 80028ec:	d016      	beq.n	800291c <TIM_Base_SetConfig+0x68>
 80028ee:	f5a2 427c 	sub.w	r2, r2, #64512	; 0xfc00
 80028f2:	4290      	cmp	r0, r2
 80028f4:	d012      	beq.n	800291c <TIM_Base_SetConfig+0x68>
 80028f6:	f502 6280 	add.w	r2, r2, #1024	; 0x400
 80028fa:	4290      	cmp	r0, r2
 80028fc:	d00e      	beq.n	800291c <TIM_Base_SetConfig+0x68>
 80028fe:	f502 6280 	add.w	r2, r2, #1024	; 0x400
 8002902:	4290      	cmp	r0, r2
 8002904:	d00a      	beq.n	800291c <TIM_Base_SetConfig+0x68>
 8002906:	4a11      	ldr	r2, [pc, #68]	; (800294c <TIM_Base_SetConfig+0x98>)
 8002908:	4290      	cmp	r0, r2
 800290a:	d007      	beq.n	800291c <TIM_Base_SetConfig+0x68>
 800290c:	f502 6280 	add.w	r2, r2, #1024	; 0x400
 8002910:	4290      	cmp	r0, r2
 8002912:	d003      	beq.n	800291c <TIM_Base_SetConfig+0x68>
 8002914:	f502 6280 	add.w	r2, r2, #1024	; 0x400
 8002918:	4290      	cmp	r0, r2
 800291a:	d103      	bne.n	8002924 <TIM_Base_SetConfig+0x70>
 800291c:	68ca      	ldr	r2, [r1, #12]
 800291e:	f423 7340 	bic.w	r3, r3, #768	; 0x300
 8002922:	4313      	orrs	r3, r2
 8002924:	694a      	ldr	r2, [r1, #20]
 8002926:	f023 0380 	bic.w	r3, r3, #128	; 0x80
 800292a:	4313      	orrs	r3, r2
 800292c:	6003      	str	r3, [r0, #0]
 800292e:	688b      	ldr	r3, [r1, #8]
 8002930:	62c3      	str	r3, [r0, #44]	; 0x2c
 8002932:	680b      	ldr	r3, [r1, #0]
 8002934:	6283      	str	r3, [r0, #40]	; 0x28
 8002936:	4b04      	ldr	r3, [pc, #16]	; (8002948 <TIM_Base_SetConfig+0x94>)
 8002938:	4298      	cmp	r0, r3
 800293a:	bf04      	itt	eq
 800293c:	690b      	ldreq	r3, [r1, #16]
 800293e:	6303      	streq	r3, [r0, #48]	; 0x30
 8002940:	2301      	movs	r3, #1
 8002942:	6143      	str	r3, [r0, #20]
 8002944:	4770      	bx	lr
 8002946:	bf00      	nop
 8002948:	40010000 	.word	0x40010000
 800294c:	40014000 	.word	0x40014000

08002950 <HAL_TIM_Base_Init>:
 8002950:	b510      	push	{r4, lr}
 8002952:	4604      	mov	r4, r0
 8002954:	b1a0      	cbz	r0, 8002980 <HAL_TIM_Base_Init+0x30>
 8002956:	f890 303d 	ldrb.w	r3, [r0, #61]	; 0x3d
 800295a:	f003 02ff 	and.w	r2, r3, #255	; 0xff
 800295e:	b91b      	cbnz	r3, 8002968 <HAL_TIM_Base_Init+0x18>
 8002960:	f880 203c 	strb.w	r2, [r0, #60]	; 0x3c
 8002964:	f7fe fdb2 	bl	80014cc <HAL_TIM_Base_MspInit>
 8002968:	2302      	movs	r3, #2
 800296a:	f884 303d 	strb.w	r3, [r4, #61]	; 0x3d
 800296e:	6820      	ldr	r0, [r4, #0]
 8002970:	1d21      	adds	r1, r4, #4
 8002972:	f7ff ff9f 	bl	80028b4 <TIM_Base_SetConfig>
 8002976:	2301      	movs	r3, #1
 8002978:	f884 303d 	strb.w	r3, [r4, #61]	; 0x3d
 800297c:	2000      	movs	r0, #0
 800297e:	bd10      	pop	{r4, pc}
 8002980:	2001      	movs	r0, #1
 8002982:	e7fc      	b.n	800297e <HAL_TIM_Base_Init+0x2e>

08002984 <TIM_ETR_SetConfig>:
 8002984:	b510      	push	{r4, lr}
 8002986:	6884      	ldr	r4, [r0, #8]
 8002988:	430a      	orrs	r2, r1
 800298a:	f424 447f 	bic.w	r4, r4, #65280	; 0xff00
 800298e:	ea42 2303 	orr.w	r3, r2, r3, lsl #8
 8002992:	4323      	orrs	r3, r4
 8002994:	6083      	str	r3, [r0, #8]
 8002996:	bd10      	pop	{r4, pc}

08002998 <HAL_TIM_ConfigClockSource>:
 8002998:	f890 303c 	ldrb.w	r3, [r0, #60]	; 0x3c
 800299c:	2b01      	cmp	r3, #1
 800299e:	b570      	push	{r4, r5, r6, lr}
 80029a0:	4604      	mov	r4, r0
 80029a2:	f04f 0002 	mov.w	r0, #2
 80029a6:	d019      	beq.n	80029dc <HAL_TIM_ConfigClockSource+0x44>
 80029a8:	f884 003d 	strb.w	r0, [r4, #61]	; 0x3d
 80029ac:	6820      	ldr	r0, [r4, #0]
 80029ae:	2301      	movs	r3, #1
 80029b0:	f884 303c 	strb.w	r3, [r4, #60]	; 0x3c
 80029b4:	6883      	ldr	r3, [r0, #8]
 80029b6:	f423 437f 	bic.w	r3, r3, #65280	; 0xff00
 80029ba:	f023 0377 	bic.w	r3, r3, #119	; 0x77
 80029be:	6083      	str	r3, [r0, #8]
 80029c0:	680b      	ldr	r3, [r1, #0]
 80029c2:	2b40      	cmp	r3, #64	; 0x40
 80029c4:	d065      	beq.n	8002a92 <HAL_TIM_ConfigClockSource+0xfa>
 80029c6:	d815      	bhi.n	80029f4 <HAL_TIM_ConfigClockSource+0x5c>
 80029c8:	2b10      	cmp	r3, #16
 80029ca:	d00c      	beq.n	80029e6 <HAL_TIM_ConfigClockSource+0x4e>
 80029cc:	d807      	bhi.n	80029de <HAL_TIM_ConfigClockSource+0x46>
 80029ce:	b153      	cbz	r3, 80029e6 <HAL_TIM_ConfigClockSource+0x4e>
 80029d0:	2301      	movs	r3, #1
 80029d2:	2000      	movs	r0, #0
 80029d4:	f884 303d 	strb.w	r3, [r4, #61]	; 0x3d
 80029d8:	f884 003c 	strb.w	r0, [r4, #60]	; 0x3c
 80029dc:	bd70      	pop	{r4, r5, r6, pc}
 80029de:	2b20      	cmp	r3, #32
 80029e0:	d001      	beq.n	80029e6 <HAL_TIM_ConfigClockSource+0x4e>
 80029e2:	2b30      	cmp	r3, #48	; 0x30
 80029e4:	d1f4      	bne.n	80029d0 <HAL_TIM_ConfigClockSource+0x38>
 80029e6:	6882      	ldr	r2, [r0, #8]
 80029e8:	f043 0307 	orr.w	r3, r3, #7
 80029ec:	f022 0270 	bic.w	r2, r2, #112	; 0x70
 80029f0:	4313      	orrs	r3, r2
 80029f2:	e01a      	b.n	8002a2a <HAL_TIM_ConfigClockSource+0x92>
 80029f4:	2b60      	cmp	r3, #96	; 0x60
 80029f6:	d034      	beq.n	8002a62 <HAL_TIM_ConfigClockSource+0xca>
 80029f8:	d819      	bhi.n	8002a2e <HAL_TIM_ConfigClockSource+0x96>
 80029fa:	2b50      	cmp	r3, #80	; 0x50
 80029fc:	d1e8      	bne.n	80029d0 <HAL_TIM_ConfigClockSource+0x38>
 80029fe:	684a      	ldr	r2, [r1, #4]
 8002a00:	68ce      	ldr	r6, [r1, #12]
 8002a02:	6a01      	ldr	r1, [r0, #32]
 8002a04:	6a05      	ldr	r5, [r0, #32]
 8002a06:	f025 0501 	bic.w	r5, r5, #1
 8002a0a:	6205      	str	r5, [r0, #32]
 8002a0c:	6983      	ldr	r3, [r0, #24]
 8002a0e:	f021 010a 	bic.w	r1, r1, #10
 8002a12:	f023 03f0 	bic.w	r3, r3, #240	; 0xf0
 8002a16:	ea43 1306 	orr.w	r3, r3, r6, lsl #4
 8002a1a:	430a      	orrs	r2, r1
 8002a1c:	6183      	str	r3, [r0, #24]
 8002a1e:	6202      	str	r2, [r0, #32]
 8002a20:	6883      	ldr	r3, [r0, #8]
 8002a22:	f023 0370 	bic.w	r3, r3, #112	; 0x70
 8002a26:	f043 0357 	orr.w	r3, r3, #87	; 0x57
 8002a2a:	6083      	str	r3, [r0, #8]
 8002a2c:	e7d0      	b.n	80029d0 <HAL_TIM_ConfigClockSource+0x38>
 8002a2e:	2b70      	cmp	r3, #112	; 0x70
 8002a30:	d00c      	beq.n	8002a4c <HAL_TIM_ConfigClockSource+0xb4>
 8002a32:	f5b3 5f00 	cmp.w	r3, #8192	; 0x2000
 8002a36:	d1cb      	bne.n	80029d0 <HAL_TIM_ConfigClockSource+0x38>
 8002a38:	68cb      	ldr	r3, [r1, #12]
 8002a3a:	e9d1 2101 	ldrd	r2, r1, [r1, #4]
 8002a3e:	f7ff ffa1 	bl	8002984 <TIM_ETR_SetConfig>
 8002a42:	6822      	ldr	r2, [r4, #0]
 8002a44:	6893      	ldr	r3, [r2, #8]
 8002a46:	f443 4380 	orr.w	r3, r3, #16384	; 0x4000
 8002a4a:	e008      	b.n	8002a5e <HAL_TIM_ConfigClockSource+0xc6>
 8002a4c:	68cb      	ldr	r3, [r1, #12]
 8002a4e:	e9d1 2101 	ldrd	r2, r1, [r1, #4]
 8002a52:	f7ff ff97 	bl	8002984 <TIM_ETR_SetConfig>
 8002a56:	6822      	ldr	r2, [r4, #0]
 8002a58:	6893      	ldr	r3, [r2, #8]
 8002a5a:	f043 0377 	orr.w	r3, r3, #119	; 0x77
 8002a5e:	6093      	str	r3, [r2, #8]
 8002a60:	e7b6      	b.n	80029d0 <HAL_TIM_ConfigClockSource+0x38>
 8002a62:	684d      	ldr	r5, [r1, #4]
 8002a64:	68ce      	ldr	r6, [r1, #12]
 8002a66:	6a01      	ldr	r1, [r0, #32]
 8002a68:	f021 0110 	bic.w	r1, r1, #16
 8002a6c:	6201      	str	r1, [r0, #32]
 8002a6e:	6982      	ldr	r2, [r0, #24]
 8002a70:	6a03      	ldr	r3, [r0, #32]
 8002a72:	f422 4270 	bic.w	r2, r2, #61440	; 0xf000
 8002a76:	f023 03a0 	bic.w	r3, r3, #160	; 0xa0
 8002a7a:	ea43 1305 	orr.w	r3, r3, r5, lsl #4
 8002a7e:	ea42 3206 	orr.w	r2, r2, r6, lsl #12
 8002a82:	6182      	str	r2, [r0, #24]
 8002a84:	6203      	str	r3, [r0, #32]
 8002a86:	6883      	ldr	r3, [r0, #8]
 8002a88:	f023 0370 	bic.w	r3, r3, #112	; 0x70
 8002a8c:	f043 0367 	orr.w	r3, r3, #103	; 0x67
 8002a90:	e7cb      	b.n	8002a2a <HAL_TIM_ConfigClockSource+0x92>
 8002a92:	684a      	ldr	r2, [r1, #4]
 8002a94:	68ce      	ldr	r6, [r1, #12]
 8002a96:	6a01      	ldr	r1, [r0, #32]
 8002a98:	6a05      	ldr	r5, [r0, #32]
 8002a9a:	f025 0501 	bic.w	r5, r5, #1
 8002a9e:	6205      	str	r5, [r0, #32]
 8002aa0:	6983      	ldr	r3, [r0, #24]
 8002aa2:	f021 010a 	bic.w	r1, r1, #10
 8002aa6:	f023 03f0 	bic.w	r3, r3, #240	; 0xf0
 8002aaa:	ea43 1306 	orr.w	r3, r3, r6, lsl #4
 8002aae:	430a      	orrs	r2, r1
 8002ab0:	6183      	str	r3, [r0, #24]
 8002ab2:	6202      	str	r2, [r0, #32]
 8002ab4:	6883      	ldr	r3, [r0, #8]
 8002ab6:	f023 0370 	bic.w	r3, r3, #112	; 0x70
 8002aba:	f043 0347 	orr.w	r3, r3, #71	; 0x47
 8002abe:	e7b4      	b.n	8002a2a <HAL_TIM_ConfigClockSource+0x92>

08002ac0 <HAL_TIMEx_MasterConfigSynchronization>:
 8002ac0:	f890 303c 	ldrb.w	r3, [r0, #60]	; 0x3c
 8002ac4:	2b01      	cmp	r3, #1
 8002ac6:	b530      	push	{r4, r5, lr}
 8002ac8:	f04f 0302 	mov.w	r3, #2
 8002acc:	d02d      	beq.n	8002b2a <HAL_TIMEx_MasterConfigSynchronization+0x6a>
 8002ace:	f880 303d 	strb.w	r3, [r0, #61]	; 0x3d
 8002ad2:	6803      	ldr	r3, [r0, #0]
 8002ad4:	680d      	ldr	r5, [r1, #0]
 8002ad6:	685c      	ldr	r4, [r3, #4]
 8002ad8:	f024 0470 	bic.w	r4, r4, #112	; 0x70
 8002adc:	2201      	movs	r2, #1
 8002ade:	432c      	orrs	r4, r5
 8002ae0:	f880 203c 	strb.w	r2, [r0, #60]	; 0x3c
 8002ae4:	689a      	ldr	r2, [r3, #8]
 8002ae6:	605c      	str	r4, [r3, #4]
 8002ae8:	4c11      	ldr	r4, [pc, #68]	; (8002b30 <HAL_TIMEx_MasterConfigSynchronization+0x70>)
 8002aea:	42a3      	cmp	r3, r4
 8002aec:	d012      	beq.n	8002b14 <HAL_TIMEx_MasterConfigSynchronization+0x54>
 8002aee:	f1b3 4f80 	cmp.w	r3, #1073741824	; 0x40000000
 8002af2:	d00f      	beq.n	8002b14 <HAL_TIMEx_MasterConfigSynchronization+0x54>
 8002af4:	f5a4 447c 	sub.w	r4, r4, #64512	; 0xfc00
 8002af8:	42a3      	cmp	r3, r4
 8002afa:	d00b      	beq.n	8002b14 <HAL_TIMEx_MasterConfigSynchronization+0x54>
 8002afc:	f504 6480 	add.w	r4, r4, #1024	; 0x400
 8002b00:	42a3      	cmp	r3, r4
 8002b02:	d007      	beq.n	8002b14 <HAL_TIMEx_MasterConfigSynchronization+0x54>
 8002b04:	f504 6480 	add.w	r4, r4, #1024	; 0x400
 8002b08:	42a3      	cmp	r3, r4
 8002b0a:	d003      	beq.n	8002b14 <HAL_TIMEx_MasterConfigSynchronization+0x54>
 8002b0c:	f504 349a 	add.w	r4, r4, #78848	; 0x13400
 8002b10:	42a3      	cmp	r3, r4
 8002b12:	d104      	bne.n	8002b1e <HAL_TIMEx_MasterConfigSynchronization+0x5e>
 8002b14:	6849      	ldr	r1, [r1, #4]
 8002b16:	f022 0280 	bic.w	r2, r2, #128	; 0x80
 8002b1a:	430a      	orrs	r2, r1
 8002b1c:	609a      	str	r2, [r3, #8]
 8002b1e:	2301      	movs	r3, #1
 8002b20:	f880 303d 	strb.w	r3, [r0, #61]	; 0x3d
 8002b24:	2300      	movs	r3, #0
 8002b26:	f880 303c 	strb.w	r3, [r0, #60]	; 0x3c
 8002b2a:	4618      	mov	r0, r3
 8002b2c:	bd30      	pop	{r4, r5, pc}
 8002b2e:	bf00      	nop
 8002b30:	40010000 	.word	0x40010000

08002b34 <HAL_TIMEx_CommutCallback>:
 8002b34:	4770      	bx	lr

08002b36 <HAL_TIMEx_BreakCallback>:
 8002b36:	4770      	bx	lr

08002b38 <UART_SetConfig>:
 8002b38:	6803      	ldr	r3, [r0, #0]
 8002b3a:	68c1      	ldr	r1, [r0, #12]
 8002b3c:	691a      	ldr	r2, [r3, #16]
 8002b3e:	b570      	push	{r4, r5, r6, lr}
 8002b40:	f422 5240 	bic.w	r2, r2, #12288	; 0x3000
 8002b44:	4604      	mov	r4, r0
 8002b46:	430a      	orrs	r2, r1
 8002b48:	611a      	str	r2, [r3, #16]
 8002b4a:	6925      	ldr	r5, [r4, #16]
 8002b4c:	68a2      	ldr	r2, [r4, #8]
 8002b4e:	68d9      	ldr	r1, [r3, #12]
 8002b50:	69c0      	ldr	r0, [r0, #28]
 8002b52:	432a      	orrs	r2, r5
 8002b54:	6965      	ldr	r5, [r4, #20]
 8002b56:	f421 4116 	bic.w	r1, r1, #38400	; 0x9600
 8002b5a:	432a      	orrs	r2, r5
 8002b5c:	f021 010c 	bic.w	r1, r1, #12
 8002b60:	4302      	orrs	r2, r0
 8002b62:	430a      	orrs	r2, r1
 8002b64:	60da      	str	r2, [r3, #12]
 8002b66:	695a      	ldr	r2, [r3, #20]
 8002b68:	69a1      	ldr	r1, [r4, #24]
 8002b6a:	f422 7240 	bic.w	r2, r2, #768	; 0x300
 8002b6e:	430a      	orrs	r2, r1
 8002b70:	f5b0 4f00 	cmp.w	r0, #32768	; 0x8000
 8002b74:	615a      	str	r2, [r3, #20]
 8002b76:	4a26      	ldr	r2, [pc, #152]	; (8002c10 <UART_SetConfig+0xd8>)
 8002b78:	d129      	bne.n	8002bce <UART_SetConfig+0x96>
 8002b7a:	4293      	cmp	r3, r2
 8002b7c:	d003      	beq.n	8002b86 <UART_SetConfig+0x4e>
 8002b7e:	f502 6280 	add.w	r2, r2, #1024	; 0x400
 8002b82:	4293      	cmp	r3, r2
 8002b84:	d120      	bne.n	8002bc8 <UART_SetConfig+0x90>
 8002b86:	f7ff fd05 	bl	8002594 <HAL_RCC_GetPCLK2Freq>
 8002b8a:	6862      	ldr	r2, [r4, #4]
 8002b8c:	2600      	movs	r6, #0
 8002b8e:	1892      	adds	r2, r2, r2
 8002b90:	f04f 0119 	mov.w	r1, #25
 8002b94:	eb46 0306 	adc.w	r3, r6, r6
 8002b98:	fba0 0101 	umull	r0, r1, r0, r1
 8002b9c:	f7fe f808 	bl	8000bb0 <__aeabi_uldivmod>
 8002ba0:	2164      	movs	r1, #100	; 0x64
 8002ba2:	fbb0 f5f1 	udiv	r5, r0, r1
 8002ba6:	fb01 0315 	mls	r3, r1, r5, r0
 8002baa:	00db      	lsls	r3, r3, #3
 8002bac:	3332      	adds	r3, #50	; 0x32
 8002bae:	fbb3 f3f1 	udiv	r3, r3, r1
 8002bb2:	f003 0207 	and.w	r2, r3, #7
 8002bb6:	005b      	lsls	r3, r3, #1
 8002bb8:	6821      	ldr	r1, [r4, #0]
 8002bba:	eb02 1205 	add.w	r2, r2, r5, lsl #4
 8002bbe:	f403 73f8 	and.w	r3, r3, #496	; 0x1f0
 8002bc2:	4413      	add	r3, r2
 8002bc4:	608b      	str	r3, [r1, #8]
 8002bc6:	bd70      	pop	{r4, r5, r6, pc}
 8002bc8:	f7ff fcd4 	bl	8002574 <HAL_RCC_GetPCLK1Freq>
 8002bcc:	e7dd      	b.n	8002b8a <UART_SetConfig+0x52>
 8002bce:	4293      	cmp	r3, r2
 8002bd0:	d002      	beq.n	8002bd8 <UART_SetConfig+0xa0>
 8002bd2:	4a10      	ldr	r2, [pc, #64]	; (8002c14 <UART_SetConfig+0xdc>)
 8002bd4:	4293      	cmp	r3, r2
 8002bd6:	d117      	bne.n	8002c08 <UART_SetConfig+0xd0>
 8002bd8:	f7ff fcdc 	bl	8002594 <HAL_RCC_GetPCLK2Freq>
 8002bdc:	6863      	ldr	r3, [r4, #4]
 8002bde:	2119      	movs	r1, #25
 8002be0:	009a      	lsls	r2, r3, #2
 8002be2:	fba0 0101 	umull	r0, r1, r0, r1
 8002be6:	0f9b      	lsrs	r3, r3, #30
 8002be8:	f7fd ffe2 	bl	8000bb0 <__aeabi_uldivmod>
 8002bec:	2264      	movs	r2, #100	; 0x64
 8002bee:	fbb0 f1f2 	udiv	r1, r0, r2
 8002bf2:	fb02 0311 	mls	r3, r2, r1, r0
 8002bf6:	6824      	ldr	r4, [r4, #0]
 8002bf8:	011b      	lsls	r3, r3, #4
 8002bfa:	3332      	adds	r3, #50	; 0x32
 8002bfc:	fbb3 f3f2 	udiv	r3, r3, r2
 8002c00:	eb03 1301 	add.w	r3, r3, r1, lsl #4
 8002c04:	60a3      	str	r3, [r4, #8]
 8002c06:	e7de      	b.n	8002bc6 <UART_SetConfig+0x8e>
 8002c08:	f7ff fcb4 	bl	8002574 <HAL_RCC_GetPCLK1Freq>
 8002c0c:	e7e6      	b.n	8002bdc <UART_SetConfig+0xa4>
 8002c0e:	bf00      	nop
 8002c10:	40011000 	.word	0x40011000
 8002c14:	40011400 	.word	0x40011400

08002c18 <HAL_UART_Init>:
 8002c18:	b510      	push	{r4, lr}
 8002c1a:	4604      	mov	r4, r0
 8002c1c:	b340      	cbz	r0, 8002c70 <HAL_UART_Init+0x58>
 8002c1e:	f890 3039 	ldrb.w	r3, [r0, #57]	; 0x39
 8002c22:	f003 02ff 	and.w	r2, r3, #255	; 0xff
 8002c26:	b91b      	cbnz	r3, 8002c30 <HAL_UART_Init+0x18>
 8002c28:	f880 2038 	strb.w	r2, [r0, #56]	; 0x38
 8002c2c:	f7fe fc96 	bl	800155c <HAL_UART_MspInit>
 8002c30:	6822      	ldr	r2, [r4, #0]
 8002c32:	2324      	movs	r3, #36	; 0x24
 8002c34:	f884 3039 	strb.w	r3, [r4, #57]	; 0x39
 8002c38:	68d3      	ldr	r3, [r2, #12]
 8002c3a:	f423 5300 	bic.w	r3, r3, #8192	; 0x2000
 8002c3e:	60d3      	str	r3, [r2, #12]
 8002c40:	4620      	mov	r0, r4
 8002c42:	f7ff ff79 	bl	8002b38 <UART_SetConfig>
 8002c46:	6823      	ldr	r3, [r4, #0]
 8002c48:	691a      	ldr	r2, [r3, #16]
 8002c4a:	f422 4290 	bic.w	r2, r2, #18432	; 0x4800
 8002c4e:	611a      	str	r2, [r3, #16]
 8002c50:	695a      	ldr	r2, [r3, #20]
 8002c52:	f022 022a 	bic.w	r2, r2, #42	; 0x2a
 8002c56:	615a      	str	r2, [r3, #20]
 8002c58:	68da      	ldr	r2, [r3, #12]
 8002c5a:	f442 5200 	orr.w	r2, r2, #8192	; 0x2000
 8002c5e:	60da      	str	r2, [r3, #12]
 8002c60:	2000      	movs	r0, #0
 8002c62:	2320      	movs	r3, #32
 8002c64:	63e0      	str	r0, [r4, #60]	; 0x3c
 8002c66:	f884 3039 	strb.w	r3, [r4, #57]	; 0x39
 8002c6a:	f884 303a 	strb.w	r3, [r4, #58]	; 0x3a
 8002c6e:	bd10      	pop	{r4, pc}
 8002c70:	2001      	movs	r0, #1
 8002c72:	e7fc      	b.n	8002c6e <HAL_UART_Init+0x56>

08002c74 <_ZN12AccelStepper4stepEl>:
 8002c74:	7943      	ldrb	r3, [r0, #5]
 8002c76:	2b08      	cmp	r3, #8
 8002c78:	d81b      	bhi.n	8002cb2 <_ZN12AccelStepper4stepEl+0x3e>
 8002c7a:	e8df f003 	tbb	[pc, r3]
 8002c7e:	0805      	.short	0x0805
 8002c80:	1a110e0b 	.word	0x1a110e0b
 8002c84:	1a14      	.short	0x1a14
 8002c86:	17          	.byte	0x17
 8002c87:	00          	.byte	0x00
 8002c88:	6803      	ldr	r3, [r0, #0]
 8002c8a:	691b      	ldr	r3, [r3, #16]
 8002c8c:	4718      	bx	r3
 8002c8e:	6803      	ldr	r3, [r0, #0]
 8002c90:	695b      	ldr	r3, [r3, #20]
 8002c92:	e7fb      	b.n	8002c8c <_ZN12AccelStepper4stepEl+0x18>
 8002c94:	6803      	ldr	r3, [r0, #0]
 8002c96:	699b      	ldr	r3, [r3, #24]
 8002c98:	e7f8      	b.n	8002c8c <_ZN12AccelStepper4stepEl+0x18>
 8002c9a:	6803      	ldr	r3, [r0, #0]
 8002c9c:	69db      	ldr	r3, [r3, #28]
 8002c9e:	e7f5      	b.n	8002c8c <_ZN12AccelStepper4stepEl+0x18>
 8002ca0:	6803      	ldr	r3, [r0, #0]
 8002ca2:	6a1b      	ldr	r3, [r3, #32]
 8002ca4:	e7f2      	b.n	8002c8c <_ZN12AccelStepper4stepEl+0x18>
 8002ca6:	6803      	ldr	r3, [r0, #0]
 8002ca8:	6a5b      	ldr	r3, [r3, #36]	; 0x24
 8002caa:	e7ef      	b.n	8002c8c <_ZN12AccelStepper4stepEl+0x18>
 8002cac:	6803      	ldr	r3, [r0, #0]
 8002cae:	6a9b      	ldr	r3, [r3, #40]	; 0x28
 8002cb0:	e7ec      	b.n	8002c8c <_ZN12AccelStepper4stepEl+0x18>
 8002cb2:	4770      	bx	lr

08002cb4 <_ZN12AccelStepper5step6El>:
 8002cb4:	2306      	movs	r3, #6
 8002cb6:	fb91 f2f3 	sdiv	r2, r1, r3
 8002cba:	fb02 1113 	mls	r1, r2, r3, r1
 8002cbe:	2905      	cmp	r1, #5
 8002cc0:	d81c      	bhi.n	8002cfc <_ZN12AccelStepper5step6El+0x48>
 8002cc2:	e8df f001 	tbb	[pc, r1]
 8002cc6:	0703      	.short	0x0703
 8002cc8:	17130f0b 	.word	0x17130f0b
 8002ccc:	6803      	ldr	r3, [r0, #0]
 8002cce:	689b      	ldr	r3, [r3, #8]
 8002cd0:	2104      	movs	r1, #4
 8002cd2:	4718      	bx	r3
 8002cd4:	6803      	ldr	r3, [r0, #0]
 8002cd6:	2105      	movs	r1, #5
 8002cd8:	689b      	ldr	r3, [r3, #8]
 8002cda:	e7fa      	b.n	8002cd2 <_ZN12AccelStepper5step6El+0x1e>
 8002cdc:	6803      	ldr	r3, [r0, #0]
 8002cde:	2101      	movs	r1, #1
 8002ce0:	689b      	ldr	r3, [r3, #8]
 8002ce2:	e7f6      	b.n	8002cd2 <_ZN12AccelStepper5step6El+0x1e>
 8002ce4:	6803      	ldr	r3, [r0, #0]
 8002ce6:	2103      	movs	r1, #3
 8002ce8:	689b      	ldr	r3, [r3, #8]
 8002cea:	e7f2      	b.n	8002cd2 <_ZN12AccelStepper5step6El+0x1e>
 8002cec:	6803      	ldr	r3, [r0, #0]
 8002cee:	2102      	movs	r1, #2
 8002cf0:	689b      	ldr	r3, [r3, #8]
 8002cf2:	e7ee      	b.n	8002cd2 <_ZN12AccelStepper5step6El+0x1e>
 8002cf4:	6803      	ldr	r3, [r0, #0]
 8002cf6:	2106      	movs	r1, #6
 8002cf8:	689b      	ldr	r3, [r3, #8]
 8002cfa:	e7ea      	b.n	8002cd2 <_ZN12AccelStepper5step6El+0x1e>
 8002cfc:	4770      	bx	lr

08002cfe <_ZN12AccelStepper5step8El>:
 8002cfe:	6803      	ldr	r3, [r0, #0]
 8002d00:	f001 0107 	and.w	r1, r1, #7
 8002d04:	3901      	subs	r1, #1
 8002d06:	689b      	ldr	r3, [r3, #8]
 8002d08:	2906      	cmp	r1, #6
 8002d0a:	d805      	bhi.n	8002d18 <_ZN12AccelStepper5step8El+0x1a>
 8002d0c:	e8df f001 	tbb	[pc, r1]
 8002d10:	0c0a0806 	.word	0x0c0a0806
 8002d14:	100e      	.short	0x100e
 8002d16:	12          	.byte	0x12
 8002d17:	00          	.byte	0x00
 8002d18:	2101      	movs	r1, #1
 8002d1a:	4718      	bx	r3
 8002d1c:	2105      	movs	r1, #5
 8002d1e:	e7fc      	b.n	8002d1a <_ZN12AccelStepper5step8El+0x1c>
 8002d20:	2104      	movs	r1, #4
 8002d22:	e7fa      	b.n	8002d1a <_ZN12AccelStepper5step8El+0x1c>
 8002d24:	2106      	movs	r1, #6
 8002d26:	e7f8      	b.n	8002d1a <_ZN12AccelStepper5step8El+0x1c>
 8002d28:	2102      	movs	r1, #2
 8002d2a:	e7f6      	b.n	8002d1a <_ZN12AccelStepper5step8El+0x1c>
 8002d2c:	210a      	movs	r1, #10
 8002d2e:	e7f4      	b.n	8002d1a <_ZN12AccelStepper5step8El+0x1c>
 8002d30:	2108      	movs	r1, #8
 8002d32:	e7f2      	b.n	8002d1a <_ZN12AccelStepper5step8El+0x1c>
 8002d34:	2109      	movs	r1, #9
 8002d36:	e7f0      	b.n	8002d1a <_ZN12AccelStepper5step8El+0x1c>

08002d38 <_ZN12AccelStepper13setOutputPinsEh>:
 8002d38:	b5f8      	push	{r3, r4, r5, r6, r7, lr}
 8002d3a:	7944      	ldrb	r4, [r0, #5]
 8002d3c:	2c04      	cmp	r4, #4
 8002d3e:	460f      	mov	r7, r1
 8002d40:	d007      	beq.n	8002d52 <_ZN12AccelStepper13setOutputPinsEh+0x1a>
 8002d42:	2c08      	cmp	r4, #8
 8002d44:	d017      	beq.n	8002d76 <_ZN12AccelStepper13setOutputPinsEh+0x3e>
 8002d46:	2c03      	cmp	r4, #3
 8002d48:	d003      	beq.n	8002d52 <_ZN12AccelStepper13setOutputPinsEh+0x1a>
 8002d4a:	2c06      	cmp	r4, #6
 8002d4c:	bf0c      	ite	eq
 8002d4e:	2403      	moveq	r4, #3
 8002d50:	2402      	movne	r4, #2
 8002d52:	1d85      	adds	r5, r0, #6
 8002d54:	2600      	movs	r6, #0
 8002d56:	f815 0b01 	ldrb.w	r0, [r5], #1
 8002d5a:	fa47 f306 	asr.w	r3, r7, r6
 8002d5e:	78e9      	ldrb	r1, [r5, #3]
 8002d60:	07db      	lsls	r3, r3, #31
 8002d62:	bf48      	it	mi
 8002d64:	f081 0101 	eormi.w	r1, r1, #1
 8002d68:	3601      	adds	r6, #1
 8002d6a:	f001 fa19 	bl	80041a0 <_Z12digitalWriteii>
 8002d6e:	b2f3      	uxtb	r3, r6
 8002d70:	429c      	cmp	r4, r3
 8002d72:	d8f0      	bhi.n	8002d56 <_ZN12AccelStepper13setOutputPinsEh+0x1e>
 8002d74:	bdf8      	pop	{r3, r4, r5, r6, r7, pc}
 8002d76:	2404      	movs	r4, #4
 8002d78:	e7eb      	b.n	8002d52 <_ZN12AccelStepper13setOutputPinsEh+0x1a>

08002d7a <_ZN12AccelStepper5step1El>:
 8002d7a:	b510      	push	{r4, lr}
 8002d7c:	7902      	ldrb	r2, [r0, #4]
 8002d7e:	6803      	ldr	r3, [r0, #0]
 8002d80:	4604      	mov	r4, r0
 8002d82:	2a00      	cmp	r2, #0
 8002d84:	bf14      	ite	ne
 8002d86:	2102      	movne	r1, #2
 8002d88:	2100      	moveq	r1, #0
 8002d8a:	689b      	ldr	r3, [r3, #8]
 8002d8c:	4798      	blx	r3
 8002d8e:	7922      	ldrb	r2, [r4, #4]
 8002d90:	6823      	ldr	r3, [r4, #0]
 8002d92:	2a00      	cmp	r2, #0
 8002d94:	bf14      	ite	ne
 8002d96:	2103      	movne	r1, #3
 8002d98:	2101      	moveq	r1, #1
 8002d9a:	689b      	ldr	r3, [r3, #8]
 8002d9c:	4620      	mov	r0, r4
 8002d9e:	4798      	blx	r3
 8002da0:	6b20      	ldr	r0, [r4, #48]	; 0x30
 8002da2:	f001 f9fb 	bl	800419c <_Z17delayMicrosecondsi>
 8002da6:	7922      	ldrb	r2, [r4, #4]
 8002da8:	6823      	ldr	r3, [r4, #0]
 8002daa:	2a00      	cmp	r2, #0
 8002dac:	4620      	mov	r0, r4
 8002dae:	689b      	ldr	r3, [r3, #8]
 8002db0:	bf14      	ite	ne
 8002db2:	2102      	movne	r1, #2
 8002db4:	2100      	moveq	r1, #0
 8002db6:	e8bd 4010 	ldmia.w	sp!, {r4, lr}
 8002dba:	4718      	bx	r3

08002dbc <_ZN12AccelStepper5step0El>:
 8002dbc:	edd0 7a06 	vldr	s15, [r0, #24]
 8002dc0:	eef5 7ac0 	vcmpe.f32	s15, #0.0
 8002dc4:	eef1 fa10 	vmrs	APSR_nzcv, fpscr
 8002dc8:	bfcc      	ite	gt
 8002dca:	6b83      	ldrgt	r3, [r0, #56]	; 0x38
 8002dcc:	6bc3      	ldrle	r3, [r0, #60]	; 0x3c
 8002dce:	4718      	bx	r3

08002dd0 <_ZN12AccelStepper5step2El>:
 8002dd0:	6803      	ldr	r3, [r0, #0]
 8002dd2:	f001 0103 	and.w	r1, r1, #3
 8002dd6:	2902      	cmp	r1, #2
 8002dd8:	689b      	ldr	r3, [r3, #8]
 8002dda:	d006      	beq.n	8002dea <_ZN12AccelStepper5step2El+0x1a>
 8002ddc:	2903      	cmp	r1, #3
 8002dde:	d006      	beq.n	8002dee <_ZN12AccelStepper5step2El+0x1e>
 8002de0:	2901      	cmp	r1, #1
 8002de2:	bf14      	ite	ne
 8002de4:	2102      	movne	r1, #2
 8002de6:	2103      	moveq	r1, #3
 8002de8:	4718      	bx	r3
 8002dea:	2101      	movs	r1, #1
 8002dec:	e7fc      	b.n	8002de8 <_ZN12AccelStepper5step2El+0x18>
 8002dee:	2100      	movs	r1, #0
 8002df0:	e7fa      	b.n	8002de8 <_ZN12AccelStepper5step2El+0x18>

08002df2 <_ZN12AccelStepper5step3El>:
 8002df2:	2303      	movs	r3, #3
 8002df4:	fb91 f3f3 	sdiv	r3, r1, r3
 8002df8:	eb03 0343 	add.w	r3, r3, r3, lsl #1
 8002dfc:	1ac9      	subs	r1, r1, r3
 8002dfe:	2901      	cmp	r1, #1
 8002e00:	4602      	mov	r2, r0
 8002e02:	d006      	beq.n	8002e12 <_ZN12AccelStepper5step3El+0x20>
 8002e04:	2902      	cmp	r1, #2
 8002e06:	d004      	beq.n	8002e12 <_ZN12AccelStepper5step3El+0x20>
 8002e08:	b931      	cbnz	r1, 8002e18 <_ZN12AccelStepper5step3El+0x26>
 8002e0a:	6803      	ldr	r3, [r0, #0]
 8002e0c:	689b      	ldr	r3, [r3, #8]
 8002e0e:	2104      	movs	r1, #4
 8002e10:	4718      	bx	r3
 8002e12:	6813      	ldr	r3, [r2, #0]
 8002e14:	689b      	ldr	r3, [r3, #8]
 8002e16:	e7fb      	b.n	8002e10 <_ZN12AccelStepper5step3El+0x1e>
 8002e18:	4770      	bx	lr

08002e1a <_ZN12AccelStepper5step4El>:
 8002e1a:	6803      	ldr	r3, [r0, #0]
 8002e1c:	f001 0103 	and.w	r1, r1, #3
 8002e20:	2902      	cmp	r1, #2
 8002e22:	689b      	ldr	r3, [r3, #8]
 8002e24:	d006      	beq.n	8002e34 <_ZN12AccelStepper5step4El+0x1a>
 8002e26:	2903      	cmp	r1, #3
 8002e28:	d006      	beq.n	8002e38 <_ZN12AccelStepper5step4El+0x1e>
 8002e2a:	2901      	cmp	r1, #1
 8002e2c:	bf14      	ite	ne
 8002e2e:	2105      	movne	r1, #5
 8002e30:	2106      	moveq	r1, #6
 8002e32:	4718      	bx	r3
 8002e34:	210a      	movs	r1, #10
 8002e36:	e7fc      	b.n	8002e32 <_ZN12AccelStepper5step4El+0x18>
 8002e38:	2109      	movs	r1, #9
 8002e3a:	e7fa      	b.n	8002e32 <_ZN12AccelStepper5step4El+0x18>

08002e3c <_ZN12AccelStepper14disableOutputsEv>:
 8002e3c:	b510      	push	{r4, lr}
 8002e3e:	7943      	ldrb	r3, [r0, #5]
 8002e40:	4604      	mov	r4, r0
 8002e42:	b193      	cbz	r3, 8002e6a <_ZN12AccelStepper14disableOutputsEv+0x2e>
 8002e44:	6803      	ldr	r3, [r0, #0]
 8002e46:	2100      	movs	r1, #0
 8002e48:	689b      	ldr	r3, [r3, #8]
 8002e4a:	4798      	blx	r3
 8002e4c:	f894 0035 	ldrb.w	r0, [r4, #53]	; 0x35
 8002e50:	28ff      	cmp	r0, #255	; 0xff
 8002e52:	d00a      	beq.n	8002e6a <_ZN12AccelStepper14disableOutputsEv+0x2e>
 8002e54:	2102      	movs	r1, #2
 8002e56:	f001 f9c9 	bl	80041ec <_Z7pinModeii>
 8002e5a:	f894 1034 	ldrb.w	r1, [r4, #52]	; 0x34
 8002e5e:	f894 0035 	ldrb.w	r0, [r4, #53]	; 0x35
 8002e62:	e8bd 4010 	ldmia.w	sp!, {r4, lr}
 8002e66:	f001 b99b 	b.w	80041a0 <_Z12digitalWriteii>
 8002e6a:	bd10      	pop	{r4, pc}

08002e6c <_ZN12AccelStepper13enableOutputsEv>:
 8002e6c:	b510      	push	{r4, lr}
 8002e6e:	7943      	ldrb	r3, [r0, #5]
 8002e70:	4604      	mov	r4, r0
 8002e72:	b363      	cbz	r3, 8002ece <_ZN12AccelStepper13enableOutputsEv+0x62>
 8002e74:	2102      	movs	r1, #2
 8002e76:	7980      	ldrb	r0, [r0, #6]
 8002e78:	f001 f9b8 	bl	80041ec <_Z7pinModeii>
 8002e7c:	2102      	movs	r1, #2
 8002e7e:	79e0      	ldrb	r0, [r4, #7]
 8002e80:	f001 f9b4 	bl	80041ec <_Z7pinModeii>
 8002e84:	7963      	ldrb	r3, [r4, #5]
 8002e86:	2b04      	cmp	r3, #4
 8002e88:	d001      	beq.n	8002e8e <_ZN12AccelStepper13enableOutputsEv+0x22>
 8002e8a:	2b08      	cmp	r3, #8
 8002e8c:	d118      	bne.n	8002ec0 <_ZN12AccelStepper13enableOutputsEv+0x54>
 8002e8e:	2102      	movs	r1, #2
 8002e90:	7a20      	ldrb	r0, [r4, #8]
 8002e92:	f001 f9ab 	bl	80041ec <_Z7pinModeii>
 8002e96:	7a60      	ldrb	r0, [r4, #9]
 8002e98:	2102      	movs	r1, #2
 8002e9a:	f001 f9a7 	bl	80041ec <_Z7pinModeii>
 8002e9e:	f894 0035 	ldrb.w	r0, [r4, #53]	; 0x35
 8002ea2:	28ff      	cmp	r0, #255	; 0xff
 8002ea4:	d013      	beq.n	8002ece <_ZN12AccelStepper13enableOutputsEv+0x62>
 8002ea6:	2102      	movs	r1, #2
 8002ea8:	f001 f9a0 	bl	80041ec <_Z7pinModeii>
 8002eac:	f894 1034 	ldrb.w	r1, [r4, #52]	; 0x34
 8002eb0:	f894 0035 	ldrb.w	r0, [r4, #53]	; 0x35
 8002eb4:	f081 0101 	eor.w	r1, r1, #1
 8002eb8:	e8bd 4010 	ldmia.w	sp!, {r4, lr}
 8002ebc:	f001 b970 	b.w	80041a0 <_Z12digitalWriteii>
 8002ec0:	2b03      	cmp	r3, #3
 8002ec2:	d001      	beq.n	8002ec8 <_ZN12AccelStepper13enableOutputsEv+0x5c>
 8002ec4:	2b06      	cmp	r3, #6
 8002ec6:	d1ea      	bne.n	8002e9e <_ZN12AccelStepper13enableOutputsEv+0x32>
 8002ec8:	2102      	movs	r1, #2
 8002eca:	7a20      	ldrb	r0, [r4, #8]
 8002ecc:	e7e5      	b.n	8002e9a <_ZN12AccelStepper13enableOutputsEv+0x2e>
 8002ece:	bd10      	pop	{r4, pc}

08002ed0 <_ZN12AccelStepper8runSpeedEv>:
 8002ed0:	b538      	push	{r3, r4, r5, lr}
 8002ed2:	6a83      	ldr	r3, [r0, #40]	; 0x28
 8002ed4:	4604      	mov	r4, r0
 8002ed6:	b90b      	cbnz	r3, 8002edc <_ZN12AccelStepper8runSpeedEv+0xc>
 8002ed8:	2000      	movs	r0, #0
 8002eda:	bd38      	pop	{r3, r4, r5, pc}
 8002edc:	f001 f946 	bl	800416c <_Z6microsv>
 8002ee0:	6ae3      	ldr	r3, [r4, #44]	; 0x2c
 8002ee2:	6aa2      	ldr	r2, [r4, #40]	; 0x28
 8002ee4:	1ac3      	subs	r3, r0, r3
 8002ee6:	4293      	cmp	r3, r2
 8002ee8:	4605      	mov	r5, r0
 8002eea:	d3f5      	bcc.n	8002ed8 <_ZN12AccelStepper8runSpeedEv+0x8>
 8002eec:	7922      	ldrb	r2, [r4, #4]
 8002eee:	6923      	ldr	r3, [r4, #16]
 8002ef0:	b14a      	cbz	r2, 8002f06 <_ZN12AccelStepper8runSpeedEv+0x36>
 8002ef2:	3301      	adds	r3, #1
 8002ef4:	6123      	str	r3, [r4, #16]
 8002ef6:	6823      	ldr	r3, [r4, #0]
 8002ef8:	6921      	ldr	r1, [r4, #16]
 8002efa:	68db      	ldr	r3, [r3, #12]
 8002efc:	4620      	mov	r0, r4
 8002efe:	4798      	blx	r3
 8002f00:	62e5      	str	r5, [r4, #44]	; 0x2c
 8002f02:	2001      	movs	r0, #1
 8002f04:	e7e9      	b.n	8002eda <_ZN12AccelStepper8runSpeedEv+0xa>
 8002f06:	3b01      	subs	r3, #1
 8002f08:	e7f4      	b.n	8002ef4 <_ZN12AccelStepper8runSpeedEv+0x24>

08002f0a <_ZN12AccelStepper18setCurrentPositionEl>:
 8002f0a:	2300      	movs	r3, #0
 8002f0c:	6403      	str	r3, [r0, #64]	; 0x40
 8002f0e:	6283      	str	r3, [r0, #40]	; 0x28
 8002f10:	2300      	movs	r3, #0
 8002f12:	e9c0 1104 	strd	r1, r1, [r0, #16]
 8002f16:	6183      	str	r3, [r0, #24]
 8002f18:	4770      	bx	lr
	...

08002f1c <_ZN12AccelStepper15computeNewSpeedEv>:
 8002f1c:	e92d 47f0 	stmdb	sp!, {r4, r5, r6, r7, r8, r9, sl, lr}
 8002f20:	2101      	movs	r1, #1
 8002f22:	4604      	mov	r4, r0
 8002f24:	2040      	movs	r0, #64	; 0x40
 8002f26:	f001 f93b 	bl	80041a0 <_Z12digitalWriteii>
 8002f2a:	edd4 7a06 	vldr	s15, [r4, #24]
 8002f2e:	e9d4 3504 	ldrd	r3, r5, [r4, #16]
 8002f32:	ee67 7aa7 	vmul.f32	s15, s15, s15
 8002f36:	1aed      	subs	r5, r5, r3
 8002f38:	ee17 0a90 	vmov	r0, s15
 8002f3c:	f7fd fab8 	bl	80004b0 <__aeabi_f2d>
 8002f40:	4606      	mov	r6, r0
 8002f42:	6a20      	ldr	r0, [r4, #32]
 8002f44:	460f      	mov	r7, r1
 8002f46:	f7fd fab3 	bl	80004b0 <__aeabi_f2d>
 8002f4a:	4602      	mov	r2, r0
 8002f4c:	460b      	mov	r3, r1
 8002f4e:	f7fd f951 	bl	80001f4 <__adddf3>
 8002f52:	4602      	mov	r2, r0
 8002f54:	460b      	mov	r3, r1
 8002f56:	4630      	mov	r0, r6
 8002f58:	4639      	mov	r1, r7
 8002f5a:	f7fd fc2b 	bl	80007b4 <__aeabi_ddiv>
 8002f5e:	f7fd fdd7 	bl	8000b10 <__aeabi_d2f>
 8002f62:	ee07 0a90 	vmov	s15, r0
 8002f66:	eefd 7ae7 	vcvt.s32.f32	s15, s15
 8002f6a:	2100      	movs	r1, #0
 8002f6c:	2040      	movs	r0, #64	; 0x40
 8002f6e:	ee17 6a90 	vmov	r6, s15
 8002f72:	f001 f915 	bl	80041a0 <_Z12digitalWriteii>
 8002f76:	2d00      	cmp	r5, #0
 8002f78:	d154      	bne.n	8003024 <_ZN12AccelStepper15computeNewSpeedEv+0x108>
 8002f7a:	2e01      	cmp	r6, #1
 8002f7c:	dc5c      	bgt.n	8003038 <_ZN12AccelStepper15computeNewSpeedEv+0x11c>
 8002f7e:	2300      	movs	r3, #0
 8002f80:	62a5      	str	r5, [r4, #40]	; 0x28
 8002f82:	61a3      	str	r3, [r4, #24]
 8002f84:	6425      	str	r5, [r4, #64]	; 0x40
 8002f86:	e8bd 87f0 	ldmia.w	sp!, {r4, r5, r6, r7, r8, r9, sl, pc}
 8002f8a:	2b00      	cmp	r3, #0
 8002f8c:	dd07      	ble.n	8002f9e <_ZN12AccelStepper15computeNewSpeedEv+0x82>
 8002f8e:	42ae      	cmp	r6, r5
 8002f90:	da02      	bge.n	8002f98 <_ZN12AccelStepper15computeNewSpeedEv+0x7c>
 8002f92:	7923      	ldrb	r3, [r4, #4]
 8002f94:	2b00      	cmp	r3, #0
 8002f96:	d14f      	bne.n	8003038 <_ZN12AccelStepper15computeNewSpeedEv+0x11c>
 8002f98:	4276      	negs	r6, r6
 8002f9a:	6426      	str	r6, [r4, #64]	; 0x40
 8002f9c:	e04c      	b.n	8003038 <_ZN12AccelStepper15computeNewSpeedEv+0x11c>
 8002f9e:	d04b      	beq.n	8003038 <_ZN12AccelStepper15computeNewSpeedEv+0x11c>
 8002fa0:	42ae      	cmp	r6, r5
 8002fa2:	da49      	bge.n	8003038 <_ZN12AccelStepper15computeNewSpeedEv+0x11c>
 8002fa4:	7922      	ldrb	r2, [r4, #4]
 8002fa6:	2a00      	cmp	r2, #0
 8002fa8:	d046      	beq.n	8003038 <_ZN12AccelStepper15computeNewSpeedEv+0x11c>
 8002faa:	425b      	negs	r3, r3
 8002fac:	6423      	str	r3, [r4, #64]	; 0x40
 8002fae:	e043      	b.n	8003038 <_ZN12AccelStepper15computeNewSpeedEv+0x11c>
 8002fb0:	d042      	beq.n	8003038 <_ZN12AccelStepper15computeNewSpeedEv+0x11c>
 8002fb2:	426a      	negs	r2, r5
 8002fb4:	42b2      	cmp	r2, r6
 8002fb6:	dd3f      	ble.n	8003038 <_ZN12AccelStepper15computeNewSpeedEv+0x11c>
 8002fb8:	7922      	ldrb	r2, [r4, #4]
 8002fba:	2a00      	cmp	r2, #0
 8002fbc:	d13c      	bne.n	8003038 <_ZN12AccelStepper15computeNewSpeedEv+0x11c>
 8002fbe:	e7f4      	b.n	8002faa <_ZN12AccelStepper15computeNewSpeedEv+0x8e>
 8002fc0:	6ca0      	ldr	r0, [r4, #72]	; 0x48
 8002fc2:	f7fd fa75 	bl	80004b0 <__aeabi_f2d>
 8002fc6:	4602      	mov	r2, r0
 8002fc8:	460b      	mov	r3, r1
 8002fca:	4606      	mov	r6, r0
 8002fcc:	460f      	mov	r7, r1
 8002fce:	f7fd f911 	bl	80001f4 <__adddf3>
 8002fd2:	4680      	mov	r8, r0
 8002fd4:	4650      	mov	r0, sl
 8002fd6:	4689      	mov	r9, r1
 8002fd8:	f7fd fa58 	bl	800048c <__aeabi_i2d>
 8002fdc:	2200      	movs	r2, #0
 8002fde:	4b28      	ldr	r3, [pc, #160]	; (8003080 <_ZN12AccelStepper15computeNewSpeedEv+0x164>)
 8002fe0:	f7fd fabe 	bl	8000560 <__aeabi_dmul>
 8002fe4:	2200      	movs	r2, #0
 8002fe6:	4b27      	ldr	r3, [pc, #156]	; (8003084 <_ZN12AccelStepper15computeNewSpeedEv+0x168>)
 8002fe8:	f7fd f904 	bl	80001f4 <__adddf3>
 8002fec:	4602      	mov	r2, r0
 8002fee:	460b      	mov	r3, r1
 8002ff0:	4640      	mov	r0, r8
 8002ff2:	4649      	mov	r1, r9
 8002ff4:	f7fd fbde 	bl	80007b4 <__aeabi_ddiv>
 8002ff8:	4602      	mov	r2, r0
 8002ffa:	460b      	mov	r3, r1
 8002ffc:	4630      	mov	r0, r6
 8002ffe:	4639      	mov	r1, r7
 8003000:	f7fd f8f6 	bl	80001f0 <__aeabi_dsub>
 8003004:	f7fd fd84 	bl	8000b10 <__aeabi_d2f>
 8003008:	edd4 7a13 	vldr	s15, [r4, #76]	; 0x4c
 800300c:	ee07 0a10 	vmov	s14, r0
 8003010:	eeb4 7a67 	vcmp.f32	s14, s15
 8003014:	eef1 fa10 	vmrs	APSR_nzcv, fpscr
 8003018:	bfc8      	it	gt
 800301a:	eef0 7a47 	vmovgt.f32	s15, s14
 800301e:	edc4 7a12 	vstr	s15, [r4, #72]	; 0x48
 8003022:	e015      	b.n	8003050 <_ZN12AccelStepper15computeNewSpeedEv+0x134>
 8003024:	6c23      	ldr	r3, [r4, #64]	; 0x40
 8003026:	dcb0      	bgt.n	8002f8a <_ZN12AccelStepper15computeNewSpeedEv+0x6e>
 8003028:	2b00      	cmp	r3, #0
 800302a:	ddc1      	ble.n	8002fb0 <_ZN12AccelStepper15computeNewSpeedEv+0x94>
 800302c:	426b      	negs	r3, r5
 800302e:	42b3      	cmp	r3, r6
 8003030:	ddb2      	ble.n	8002f98 <_ZN12AccelStepper15computeNewSpeedEv+0x7c>
 8003032:	7923      	ldrb	r3, [r4, #4]
 8003034:	2b00      	cmp	r3, #0
 8003036:	d1af      	bne.n	8002f98 <_ZN12AccelStepper15computeNewSpeedEv+0x7c>
 8003038:	f8d4 a040 	ldr.w	sl, [r4, #64]	; 0x40
 800303c:	f1ba 0f00 	cmp.w	sl, #0
 8003040:	d1be      	bne.n	8002fc0 <_ZN12AccelStepper15computeNewSpeedEv+0xa4>
 8003042:	2d00      	cmp	r5, #0
 8003044:	6c63      	ldr	r3, [r4, #68]	; 0x44
 8003046:	64a3      	str	r3, [r4, #72]	; 0x48
 8003048:	bfd4      	ite	le
 800304a:	2500      	movle	r5, #0
 800304c:	2501      	movgt	r5, #1
 800304e:	7125      	strb	r5, [r4, #4]
 8003050:	ed94 7a12 	vldr	s14, [r4, #72]	; 0x48
 8003054:	eddf 6a0c 	vldr	s13, [pc, #48]	; 8003088 <_ZN12AccelStepper15computeNewSpeedEv+0x16c>
 8003058:	eefc 7ac7 	vcvt.u32.f32	s15, s14
 800305c:	f10a 0301 	add.w	r3, sl, #1
 8003060:	edc4 7a0a 	vstr	s15, [r4, #40]	; 0x28
 8003064:	eec6 7a87 	vdiv.f32	s15, s13, s14
 8003068:	6423      	str	r3, [r4, #64]	; 0x40
 800306a:	7923      	ldrb	r3, [r4, #4]
 800306c:	edc4 7a06 	vstr	s15, [r4, #24]
 8003070:	2b00      	cmp	r3, #0
 8003072:	d188      	bne.n	8002f86 <_ZN12AccelStepper15computeNewSpeedEv+0x6a>
 8003074:	eef1 7a67 	vneg.f32	s15, s15
 8003078:	edc4 7a06 	vstr	s15, [r4, #24]
 800307c:	e783      	b.n	8002f86 <_ZN12AccelStepper15computeNewSpeedEv+0x6a>
 800307e:	bf00      	nop
 8003080:	40100000 	.word	0x40100000
 8003084:	3ff00000 	.word	0x3ff00000
 8003088:	49742400 	.word	0x49742400

0800308c <_ZN12AccelStepper6moveToEl>:
 800308c:	6942      	ldr	r2, [r0, #20]
 800308e:	428a      	cmp	r2, r1
 8003090:	d002      	beq.n	8003098 <_ZN12AccelStepper6moveToEl+0xc>
 8003092:	6141      	str	r1, [r0, #20]
 8003094:	f7ff bf42 	b.w	8002f1c <_ZN12AccelStepper15computeNewSpeedEv>
 8003098:	4770      	bx	lr

0800309a <_ZN12AccelStepper4moveEl>:
 800309a:	6903      	ldr	r3, [r0, #16]
 800309c:	4419      	add	r1, r3
 800309e:	f7ff bff5 	b.w	800308c <_ZN12AccelStepper6moveToEl>
 80030a2:	0000      	movs	r0, r0
 80030a4:	0000      	movs	r0, r0
	...

080030a8 <_ZN12AccelStepper15setAccelerationEf.part.8>:
 80030a8:	b510      	push	{r4, lr}
 80030aa:	ed2d 8b02 	vpush	{d8}
 80030ae:	eeb5 0ac0 	vcmpe.f32	s0, #0.0
 80030b2:	eef1 fa10 	vmrs	APSR_nzcv, fpscr
 80030b6:	ed90 7a08 	vldr	s14, [r0, #32]
 80030ba:	eeb0 8a40 	vmov.f32	s16, s0
 80030be:	bf48      	it	mi
 80030c0:	eeb1 8a40 	vnegmi.f32	s16, s0
 80030c4:	eeb4 7a48 	vcmp.f32	s14, s16
 80030c8:	eef1 fa10 	vmrs	APSR_nzcv, fpscr
 80030cc:	4604      	mov	r4, r0
 80030ce:	d032      	beq.n	8003136 <_ZN12AccelStepper15setAccelerationEf.part.8+0x8e>
 80030d0:	eec7 6a08 	vdiv.f32	s13, s14, s16
 80030d4:	edd0 7a10 	vldr	s15, [r0, #64]	; 0x40
 80030d8:	eef8 7ae7 	vcvt.f32.s32	s15, s15
 80030dc:	ee67 7aa6 	vmul.f32	s15, s15, s13
 80030e0:	eefd 7ae7 	vcvt.s32.f32	s15, s15
 80030e4:	edc0 7a10 	vstr	s15, [r0, #64]	; 0x40
 80030e8:	ee18 0a10 	vmov	r0, s16
 80030ec:	f7fd f9e0 	bl	80004b0 <__aeabi_f2d>
 80030f0:	4602      	mov	r2, r0
 80030f2:	460b      	mov	r3, r1
 80030f4:	2000      	movs	r0, #0
 80030f6:	f04f 4180 	mov.w	r1, #1073741824	; 0x40000000
 80030fa:	f7fd fb5b 	bl	80007b4 <__aeabi_ddiv>
 80030fe:	ec41 0b10 	vmov	d0, r0, r1
 8003102:	f001 fac7 	bl	8004694 <sqrt>
 8003106:	a30e      	add	r3, pc, #56	; (adr r3, 8003140 <_ZN12AccelStepper15setAccelerationEf.part.8+0x98>)
 8003108:	e9d3 2300 	ldrd	r2, r3, [r3]
 800310c:	ec51 0b10 	vmov	r0, r1, d0
 8003110:	f7fd fa26 	bl	8000560 <__aeabi_dmul>
 8003114:	a30c      	add	r3, pc, #48	; (adr r3, 8003148 <_ZN12AccelStepper15setAccelerationEf.part.8+0xa0>)
 8003116:	e9d3 2300 	ldrd	r2, r3, [r3]
 800311a:	f7fd fa21 	bl	8000560 <__aeabi_dmul>
 800311e:	f7fd fcf7 	bl	8000b10 <__aeabi_d2f>
 8003122:	ed84 8a08 	vstr	s16, [r4, #32]
 8003126:	ecbd 8b02 	vpop	{d8}
 800312a:	6460      	str	r0, [r4, #68]	; 0x44
 800312c:	4620      	mov	r0, r4
 800312e:	e8bd 4010 	ldmia.w	sp!, {r4, lr}
 8003132:	f7ff bef3 	b.w	8002f1c <_ZN12AccelStepper15computeNewSpeedEv>
 8003136:	ecbd 8b02 	vpop	{d8}
 800313a:	bd10      	pop	{r4, pc}
 800313c:	f3af 8000 	nop.w
 8003140:	c083126f 	.word	0xc083126f
 8003144:	3fe5a1ca 	.word	0x3fe5a1ca
 8003148:	00000000 	.word	0x00000000
 800314c:	412e8480 	.word	0x412e8480

08003150 <_ZN12AccelStepperC1Ehhhhhb>:
 8003150:	b5f8      	push	{r3, r4, r5, r6, r7, lr}
 8003152:	f04f 0c01 	mov.w	ip, #1
 8003156:	4d19      	ldr	r5, [pc, #100]	; (80031bc <_ZN12AccelStepperC1Ehhhhhb+0x6c>)
 8003158:	71c3      	strb	r3, [r0, #7]
 800315a:	f89d 7020 	ldrb.w	r7, [sp, #32]
 800315e:	f89d 3018 	ldrb.w	r3, [sp, #24]
 8003162:	6005      	str	r5, [r0, #0]
 8003164:	f04f 567e 	mov.w	r6, #1065353216	; 0x3f800000
 8003168:	2500      	movs	r5, #0
 800316a:	7141      	strb	r1, [r0, #5]
 800316c:	f8c0 c030 	str.w	ip, [r0, #48]	; 0x30
 8003170:	2100      	movs	r1, #0
 8003172:	f04f 0cff 	mov.w	ip, #255	; 0xff
 8003176:	7203      	strb	r3, [r0, #8]
 8003178:	f89d 301c 	ldrb.w	r3, [sp, #28]
 800317c:	6185      	str	r5, [r0, #24]
 800317e:	4604      	mov	r4, r0
 8003180:	e9c0 1104 	strd	r1, r1, [r0, #16]
 8003184:	61c6      	str	r6, [r0, #28]
 8003186:	6205      	str	r5, [r0, #32]
 8003188:	6246      	str	r6, [r0, #36]	; 0x24
 800318a:	6281      	str	r1, [r0, #40]	; 0x28
 800318c:	f880 c035 	strb.w	ip, [r0, #53]	; 0x35
 8003190:	62c1      	str	r1, [r0, #44]	; 0x2c
 8003192:	7182      	strb	r2, [r0, #6]
 8003194:	7243      	strb	r3, [r0, #9]
 8003196:	f880 1034 	strb.w	r1, [r0, #52]	; 0x34
 800319a:	6401      	str	r1, [r0, #64]	; 0x40
 800319c:	6445      	str	r5, [r0, #68]	; 0x44
 800319e:	6485      	str	r5, [r0, #72]	; 0x48
 80031a0:	64c6      	str	r6, [r0, #76]	; 0x4c
 80031a2:	7101      	strb	r1, [r0, #4]
 80031a4:	8141      	strh	r1, [r0, #10]
 80031a6:	8181      	strh	r1, [r0, #12]
 80031a8:	b10f      	cbz	r7, 80031ae <_ZN12AccelStepperC1Ehhhhhb+0x5e>
 80031aa:	f7ff fe5f 	bl	8002e6c <_ZN12AccelStepper13enableOutputsEv>
 80031ae:	4620      	mov	r0, r4
 80031b0:	eeb7 0a00 	vmov.f32	s0, #112	; 0x3f800000  1.0
 80031b4:	f7ff ff78 	bl	80030a8 <_ZN12AccelStepper15setAccelerationEf.part.8>
 80031b8:	4620      	mov	r0, r4
 80031ba:	bdf8      	pop	{r3, r4, r5, r6, r7, pc}
 80031bc:	08004950 	.word	0x08004950

080031c0 <_ZN12AccelStepper11setMaxSpeedEf>:
 80031c0:	b5d0      	push	{r4, r6, r7, lr}
 80031c2:	eeb5 0ac0 	vcmpe.f32	s0, #0.0
 80031c6:	eef1 fa10 	vmrs	APSR_nzcv, fpscr
 80031ca:	edd0 7a07 	vldr	s15, [r0, #28]
 80031ce:	bf48      	it	mi
 80031d0:	eeb1 0a40 	vnegmi.f32	s0, s0
 80031d4:	eef4 7a40 	vcmp.f32	s15, s0
 80031d8:	eef1 fa10 	vmrs	APSR_nzcv, fpscr
 80031dc:	4604      	mov	r4, r0
 80031de:	d029      	beq.n	8003234 <_ZN12AccelStepper11setMaxSpeedEf+0x74>
 80031e0:	ed9f 7a15 	vldr	s14, [pc, #84]	; 8003238 <_ZN12AccelStepper11setMaxSpeedEf+0x78>
 80031e4:	6c03      	ldr	r3, [r0, #64]	; 0x40
 80031e6:	ed80 0a07 	vstr	s0, [r0, #28]
 80031ea:	eec7 7a00 	vdiv.f32	s15, s14, s0
 80031ee:	2b00      	cmp	r3, #0
 80031f0:	edc0 7a13 	vstr	s15, [r0, #76]	; 0x4c
 80031f4:	dd1e      	ble.n	8003234 <_ZN12AccelStepper11setMaxSpeedEf+0x74>
 80031f6:	edd0 7a06 	vldr	s15, [r0, #24]
 80031fa:	ee67 7aa7 	vmul.f32	s15, s15, s15
 80031fe:	ee17 0a90 	vmov	r0, s15
 8003202:	f7fd f955 	bl	80004b0 <__aeabi_f2d>
 8003206:	4606      	mov	r6, r0
 8003208:	6a20      	ldr	r0, [r4, #32]
 800320a:	460f      	mov	r7, r1
 800320c:	f7fd f950 	bl	80004b0 <__aeabi_f2d>
 8003210:	4602      	mov	r2, r0
 8003212:	460b      	mov	r3, r1
 8003214:	f7fc ffee 	bl	80001f4 <__adddf3>
 8003218:	4602      	mov	r2, r0
 800321a:	460b      	mov	r3, r1
 800321c:	4630      	mov	r0, r6
 800321e:	4639      	mov	r1, r7
 8003220:	f7fd fac8 	bl	80007b4 <__aeabi_ddiv>
 8003224:	f7fd fc4c 	bl	8000ac0 <__aeabi_d2iz>
 8003228:	6420      	str	r0, [r4, #64]	; 0x40
 800322a:	4620      	mov	r0, r4
 800322c:	e8bd 40d0 	ldmia.w	sp!, {r4, r6, r7, lr}
 8003230:	f7ff be74 	b.w	8002f1c <_ZN12AccelStepper15computeNewSpeedEv>
 8003234:	bdd0      	pop	{r4, r6, r7, pc}
 8003236:	bf00      	nop
 8003238:	49742400 	.word	0x49742400

0800323c <_ZN12AccelStepper15setAccelerationEf>:
 800323c:	eeb5 0a40 	vcmp.f32	s0, #0.0
 8003240:	eef1 fa10 	vmrs	APSR_nzcv, fpscr
 8003244:	d001      	beq.n	800324a <_ZN12AccelStepper15setAccelerationEf+0xe>
 8003246:	f7ff bf2f 	b.w	80030a8 <_ZN12AccelStepper15setAccelerationEf.part.8>
 800324a:	4770      	bx	lr

0800324c <_ZN12AccelStepper5speedEv>:
 800324c:	ed90 0a06 	vldr	s0, [r0, #24]
 8003250:	4770      	bx	lr

08003252 <_ZN12AccelStepper9isRunningEv>:
 8003252:	edd0 7a06 	vldr	s15, [r0, #24]
 8003256:	eef5 7a40 	vcmp.f32	s15, #0.0
 800325a:	eef1 fa10 	vmrs	APSR_nzcv, fpscr
 800325e:	d105      	bne.n	800326c <_ZN12AccelStepper9isRunningEv+0x1a>
 8003260:	e9d0 0304 	ldrd	r0, r3, [r0, #16]
 8003264:	1a18      	subs	r0, r3, r0
 8003266:	bf18      	it	ne
 8003268:	2001      	movne	r0, #1
 800326a:	4770      	bx	lr
 800326c:	2001      	movs	r0, #1
 800326e:	4770      	bx	lr

08003270 <_ZN20AccelStepperExtendedC1Eii>:
 8003270:	b530      	push	{r4, r5, lr}
 8003272:	2305      	movs	r3, #5
 8003274:	b085      	sub	sp, #20
 8003276:	2501      	movs	r5, #1
 8003278:	e9cd 3501 	strd	r3, r5, [sp, #4]
 800327c:	2304      	movs	r3, #4
 800327e:	4604      	mov	r4, r0
 8003280:	9300      	str	r3, [sp, #0]
 8003282:	b2d3      	uxtb	r3, r2
 8003284:	b2ca      	uxtb	r2, r1
 8003286:	4629      	mov	r1, r5
 8003288:	f7ff ff62 	bl	8003150 <_ZN12AccelStepperC1Ehhhhhb>
 800328c:	4b05      	ldr	r3, [pc, #20]	; (80032a4 <_ZN20AccelStepperExtendedC1Eii+0x34>)
 800328e:	6023      	str	r3, [r4, #0]
 8003290:	f04f 537e 	mov.w	r3, #1065353216	; 0x3f800000
 8003294:	6523      	str	r3, [r4, #80]	; 0x50
 8003296:	4b04      	ldr	r3, [pc, #16]	; (80032a8 <_ZN20AccelStepperExtendedC1Eii+0x38>)
 8003298:	6563      	str	r3, [r4, #84]	; 0x54
 800329a:	4b04      	ldr	r3, [pc, #16]	; (80032ac <_ZN20AccelStepperExtendedC1Eii+0x3c>)
 800329c:	65a3      	str	r3, [r4, #88]	; 0x58
 800329e:	4620      	mov	r0, r4
 80032a0:	b005      	add	sp, #20
 80032a2:	bd30      	pop	{r4, r5, pc}
 80032a4:	08004984 	.word	0x08004984
 80032a8:	42c80000 	.word	0x42c80000
 80032ac:	461c4000 	.word	0x461c4000

080032b0 <_ZN20AccelStepperExtended9moveTo_mmEf>:
 80032b0:	edd0 7a15 	vldr	s15, [r0, #84]	; 0x54
 80032b4:	ee20 0a27 	vmul.f32	s0, s0, s15
 80032b8:	eefd 7ac0 	vcvt.s32.f32	s15, s0
 80032bc:	ee17 1a90 	vmov	r1, s15
 80032c0:	f7ff bee4 	b.w	800308c <_ZN12AccelStepper6moveToEl>

080032c4 <_ZN20AccelStepperExtended21setCurrentPosition_mmEf>:
 80032c4:	edd0 7a15 	vldr	s15, [r0, #84]	; 0x54
 80032c8:	ee20 0a27 	vmul.f32	s0, s0, s15
 80032cc:	eefd 7ac0 	vcvt.s32.f32	s15, s0
 80032d0:	ee17 1a90 	vmov	r1, s15
 80032d4:	f7ff be19 	b.w	8002f0a <_ZN12AccelStepper18setCurrentPositionEl>

080032d8 <_ZN20AccelStepperExtended14setMaxSpeed_mmEf>:
 80032d8:	edd0 7a14 	vldr	s15, [r0, #80]	; 0x50
 80032dc:	ee20 0a27 	vmul.f32	s0, s0, s15
 80032e0:	edd0 7a16 	vldr	s15, [r0, #88]	; 0x58
 80032e4:	eef4 7a40 	vcmp.f32	s15, s0
 80032e8:	eef1 fa10 	vmrs	APSR_nzcv, fpscr
 80032ec:	bf48      	it	mi
 80032ee:	eeb0 0a67 	vmovmi.f32	s0, s15
 80032f2:	edd0 7a15 	vldr	s15, [r0, #84]	; 0x54
 80032f6:	ee20 0a27 	vmul.f32	s0, s0, s15
 80032fa:	f7ff bf61 	b.w	80031c0 <_ZN12AccelStepper11setMaxSpeedEf>

080032fe <_ZN20AccelStepperExtended18setMaxSpeed_cap_mmEf>:
 80032fe:	ed80 0a16 	vstr	s0, [r0, #88]	; 0x58
 8003302:	f7ff bfe9 	b.w	80032d8 <_ZN20AccelStepperExtended14setMaxSpeed_mmEf>

08003306 <_ZN20AccelStepperExtended25setMaxSpeed_multiplier_mmEf>:
 8003306:	ed80 0a14 	vstr	s0, [r0, #80]	; 0x50
 800330a:	4770      	bx	lr

0800330c <_ZN20AccelStepperExtended18setAcceleration_mmEf>:
 800330c:	edd0 7a15 	vldr	s15, [r0, #84]	; 0x54
 8003310:	ee20 0a27 	vmul.f32	s0, s0, s15
 8003314:	f7ff bf92 	b.w	800323c <_ZN12AccelStepper15setAccelerationEf>

08003318 <_ZN20AccelStepperExtended14setStepsPer_mmEf>:
 8003318:	ed80 0a15 	vstr	s0, [r0, #84]	; 0x54
 800331c:	4770      	bx	lr

0800331e <_ZN20AccelStepperExtended14getMaxSpeed_mmEv>:
 800331e:	b510      	push	{r4, lr}
 8003320:	4604      	mov	r4, r0
 8003322:	f7ff ff93 	bl	800324c <_ZN12AccelStepper5speedEv>
 8003326:	edd4 7a15 	vldr	s15, [r4, #84]	; 0x54
 800332a:	ee80 0a27 	vdiv.f32	s0, s0, s15
 800332e:	bd10      	pop	{r4, pc}

08003330 <_ZN6Serial3ISREv>:
 8003330:	b570      	push	{r4, r5, r6, lr}
 8003332:	4604      	mov	r4, r0
 8003334:	6800      	ldr	r0, [r0, #0]
 8003336:	6803      	ldr	r3, [r0, #0]
 8003338:	6819      	ldr	r1, [r3, #0]
 800333a:	68da      	ldr	r2, [r3, #12]
 800333c:	068e      	lsls	r6, r1, #26
 800333e:	d50b      	bpl.n	8003358 <_ZN6Serial3ISREv+0x28>
 8003340:	0695      	lsls	r5, r2, #26
 8003342:	d509      	bpl.n	8003358 <_ZN6Serial3ISREv+0x28>
 8003344:	685e      	ldr	r6, [r3, #4]
 8003346:	f8d4 310c 	ldr.w	r3, [r4, #268]	; 0x10c
 800334a:	18e5      	adds	r5, r4, r3
 800334c:	3301      	adds	r3, #1
 800334e:	b2db      	uxtb	r3, r3
 8003350:	f885 6114 	strb.w	r6, [r5, #276]	; 0x114
 8003354:	f8c4 310c 	str.w	r3, [r4, #268]	; 0x10c
 8003358:	060e      	lsls	r6, r1, #24
 800335a:	d512      	bpl.n	8003382 <_ZN6Serial3ISREv+0x52>
 800335c:	0615      	lsls	r5, r2, #24
 800335e:	d510      	bpl.n	8003382 <_ZN6Serial3ISREv+0x52>
 8003360:	e9d4 5301 	ldrd	r5, r3, [r4, #4]
 8003364:	1aed      	subs	r5, r5, r3
 8003366:	f015 0fff 	tst.w	r5, #255	; 0xff
 800336a:	d12d      	bne.n	80033c8 <_ZN6Serial3ISREv+0x98>
 800336c:	6800      	ldr	r0, [r0, #0]
 800336e:	68c3      	ldr	r3, [r0, #12]
 8003370:	f023 0380 	bic.w	r3, r3, #128	; 0x80
 8003374:	60c3      	str	r3, [r0, #12]
 8003376:	6823      	ldr	r3, [r4, #0]
 8003378:	6818      	ldr	r0, [r3, #0]
 800337a:	68c3      	ldr	r3, [r0, #12]
 800337c:	f043 0340 	orr.w	r3, r3, #64	; 0x40
 8003380:	60c3      	str	r3, [r0, #12]
 8003382:	0649      	lsls	r1, r1, #25
 8003384:	d513      	bpl.n	80033ae <_ZN6Serial3ISREv+0x7e>
 8003386:	0653      	lsls	r3, r2, #25
 8003388:	d511      	bpl.n	80033ae <_ZN6Serial3ISREv+0x7e>
 800338a:	6823      	ldr	r3, [r4, #0]
 800338c:	681a      	ldr	r2, [r3, #0]
 800338e:	68d3      	ldr	r3, [r2, #12]
 8003390:	f023 0340 	bic.w	r3, r3, #64	; 0x40
 8003394:	60d3      	str	r3, [r2, #12]
 8003396:	2301      	movs	r3, #1
 8003398:	f884 3214 	strb.w	r3, [r4, #532]	; 0x214
 800339c:	f894 3215 	ldrb.w	r3, [r4, #533]	; 0x215
 80033a0:	b12b      	cbz	r3, 80033ae <_ZN6Serial3ISREv+0x7e>
 80033a2:	f8b4 121c 	ldrh.w	r1, [r4, #540]	; 0x21c
 80033a6:	f8d4 0218 	ldr.w	r0, [r4, #536]	; 0x218
 80033aa:	f000 ff22 	bl	80041f2 <_Z13gpio_ResetPinP12GPIO_TypeDeft>
 80033ae:	6823      	ldr	r3, [r4, #0]
 80033b0:	681a      	ldr	r2, [r3, #0]
 80033b2:	6953      	ldr	r3, [r2, #20]
 80033b4:	f023 0310 	bic.w	r3, r3, #16
 80033b8:	6153      	str	r3, [r2, #20]
 80033ba:	6823      	ldr	r3, [r4, #0]
 80033bc:	681a      	ldr	r2, [r3, #0]
 80033be:	6953      	ldr	r3, [r2, #20]
 80033c0:	f423 7380 	bic.w	r3, r3, #256	; 0x100
 80033c4:	6153      	str	r3, [r2, #20]
 80033c6:	bd70      	pop	{r4, r5, r6, pc}
 80033c8:	18e5      	adds	r5, r4, r3
 80033ca:	3301      	adds	r3, #1
 80033cc:	b2db      	uxtb	r3, r3
 80033ce:	7b2d      	ldrb	r5, [r5, #12]
 80033d0:	60a3      	str	r3, [r4, #8]
 80033d2:	6803      	ldr	r3, [r0, #0]
 80033d4:	605d      	str	r5, [r3, #4]
 80033d6:	e7d4      	b.n	8003382 <_ZN6Serial3ISREv+0x52>

080033d8 <_ZN6Serial4initEP20__UART_HandleTypeDef>:
 80033d8:	2300      	movs	r3, #0
 80033da:	f880 3215 	strb.w	r3, [r0, #533]	; 0x215
 80033de:	6001      	str	r1, [r0, #0]
 80033e0:	680a      	ldr	r2, [r1, #0]
 80033e2:	63cb      	str	r3, [r1, #60]	; 0x3c
 80033e4:	2322      	movs	r3, #34	; 0x22
 80033e6:	f881 303a 	strb.w	r3, [r1, #58]	; 0x3a
 80033ea:	68d3      	ldr	r3, [r2, #12]
 80033ec:	f443 7390 	orr.w	r3, r3, #288	; 0x120
 80033f0:	60d3      	str	r3, [r2, #12]
 80033f2:	4770      	bx	lr

080033f4 <_ZN6Serial9availableEv>:
 80033f4:	f8d0 310c 	ldr.w	r3, [r0, #268]	; 0x10c
 80033f8:	f8d0 0110 	ldr.w	r0, [r0, #272]	; 0x110
 80033fc:	1a18      	subs	r0, r3, r0
 80033fe:	b2c0      	uxtb	r0, r0
 8003400:	4770      	bx	lr

08003402 <_ZN6Serial4readEv>:
 8003402:	f8d0 3110 	ldr.w	r3, [r0, #272]	; 0x110
 8003406:	4602      	mov	r2, r0
 8003408:	18c1      	adds	r1, r0, r3
 800340a:	3301      	adds	r3, #1
 800340c:	b2db      	uxtb	r3, r3
 800340e:	f891 0114 	ldrb.w	r0, [r1, #276]	; 0x114
 8003412:	f8c2 3110 	str.w	r3, [r2, #272]	; 0x110
 8003416:	4770      	bx	lr

08003418 <_ZN6Serial8enableTxEv>:
 8003418:	b510      	push	{r4, lr}
 800341a:	f890 3215 	ldrb.w	r3, [r0, #533]	; 0x215
 800341e:	4604      	mov	r4, r0
 8003420:	b12b      	cbz	r3, 800342e <_ZN6Serial8enableTxEv+0x16>
 8003422:	f8b0 121c 	ldrh.w	r1, [r0, #540]	; 0x21c
 8003426:	f8d0 0218 	ldr.w	r0, [r0, #536]	; 0x218
 800342a:	f000 fee0 	bl	80041ee <_Z11gpio_SetPinP12GPIO_TypeDeft>
 800342e:	6823      	ldr	r3, [r4, #0]
 8003430:	681a      	ldr	r2, [r3, #0]
 8003432:	68d3      	ldr	r3, [r2, #12]
 8003434:	f043 0380 	orr.w	r3, r3, #128	; 0x80
 8003438:	60d3      	str	r3, [r2, #12]
 800343a:	2300      	movs	r3, #0
 800343c:	f884 3214 	strb.w	r3, [r4, #532]	; 0x214
 8003440:	bd10      	pop	{r4, pc}

08003442 <_ZN6Serial8writeBufEPKht>:
 8003442:	b470      	push	{r4, r5, r6}
 8003444:	460c      	mov	r4, r1
 8003446:	1a63      	subs	r3, r4, r1
 8003448:	b29b      	uxth	r3, r3
 800344a:	429a      	cmp	r2, r3
 800344c:	d908      	bls.n	8003460 <_ZN6Serial8writeBufEPKht+0x1e>
 800344e:	6843      	ldr	r3, [r0, #4]
 8003450:	f814 6b01 	ldrb.w	r6, [r4], #1
 8003454:	18c5      	adds	r5, r0, r3
 8003456:	3301      	adds	r3, #1
 8003458:	b2db      	uxtb	r3, r3
 800345a:	732e      	strb	r6, [r5, #12]
 800345c:	6043      	str	r3, [r0, #4]
 800345e:	e7f2      	b.n	8003446 <_ZN6Serial8writeBufEPKht+0x4>
 8003460:	bc70      	pop	{r4, r5, r6}
 8003462:	f7ff bfd9 	b.w	8003418 <_ZN6Serial8enableTxEv>

08003466 <_ZN6Serial5writeEh>:
 8003466:	6843      	ldr	r3, [r0, #4]
 8003468:	b410      	push	{r4}
 800346a:	18c4      	adds	r4, r0, r3
 800346c:	3301      	adds	r3, #1
 800346e:	7321      	strb	r1, [r4, #12]
 8003470:	b2db      	uxtb	r3, r3
 8003472:	6043      	str	r3, [r0, #4]
 8003474:	f85d 4b04 	ldr.w	r4, [sp], #4
 8003478:	f7ff bfce 	b.w	8003418 <_ZN6Serial8enableTxEv>

0800347c <_GLOBAL__sub_I_serial1>:
 800347c:	4b04      	ldr	r3, [pc, #16]	; (8003490 <_GLOBAL__sub_I_serial1+0x14>)
 800347e:	2200      	movs	r2, #0
 8003480:	e9c3 2201 	strd	r2, r2, [r3, #4]
 8003484:	f8c3 210c 	str.w	r2, [r3, #268]	; 0x10c
 8003488:	f8c3 2110 	str.w	r2, [r3, #272]	; 0x110
 800348c:	4770      	bx	lr
 800348e:	bf00      	nop
 8003490:	20000304 	.word	0x20000304

08003494 <_ZL20do_cmd_stepper_powerb>:
 8003494:	b510      	push	{r4, lr}
 8003496:	4601      	mov	r1, r0
 8003498:	4604      	mov	r4, r0
 800349a:	2046      	movs	r0, #70	; 0x46
 800349c:	f000 fe80 	bl	80041a0 <_Z12digitalWriteii>
 80034a0:	4621      	mov	r1, r4
 80034a2:	2043      	movs	r0, #67	; 0x43
 80034a4:	f000 fe7c 	bl	80041a0 <_Z12digitalWriteii>
 80034a8:	4621      	mov	r1, r4
 80034aa:	2040      	movs	r0, #64	; 0x40
 80034ac:	f000 fe78 	bl	80041a0 <_Z12digitalWriteii>
 80034b0:	4621      	mov	r1, r4
 80034b2:	2015      	movs	r0, #21
 80034b4:	f000 fe74 	bl	80041a0 <_Z12digitalWriteii>
 80034b8:	4621      	mov	r1, r4
 80034ba:	2036      	movs	r0, #54	; 0x36
 80034bc:	f000 fe70 	bl	80041a0 <_Z12digitalWriteii>
 80034c0:	4621      	mov	r1, r4
 80034c2:	2036      	movs	r0, #54	; 0x36
 80034c4:	f000 fe6c 	bl	80041a0 <_Z12digitalWriteii>
 80034c8:	4621      	mov	r1, r4
 80034ca:	2029      	movs	r0, #41	; 0x29
 80034cc:	f000 fe68 	bl	80041a0 <_Z12digitalWriteii>
 80034d0:	4621      	mov	r1, r4
 80034d2:	2030      	movs	r0, #48	; 0x30
 80034d4:	e8bd 4010 	ldmia.w	sp!, {r4, lr}
 80034d8:	f000 be62 	b.w	80041a0 <_Z12digitalWriteii>

080034dc <_ZL19job_prelling_handlev>:
 80034dc:	b510      	push	{r4, lr}
 80034de:	4c0c      	ldr	r4, [pc, #48]	; (8003510 <_ZL19job_prelling_handlev+0x34>)
 80034e0:	7823      	ldrb	r3, [r4, #0]
 80034e2:	b19b      	cbz	r3, 800350c <_ZL19job_prelling_handlev+0x30>
 80034e4:	480b      	ldr	r0, [pc, #44]	; (8003514 <_ZL19job_prelling_handlev+0x38>)
 80034e6:	f000 fe93 	bl	8004210 <_ZN14Prelling_input6updateEv>
 80034ea:	480b      	ldr	r0, [pc, #44]	; (8003518 <_ZL19job_prelling_handlev+0x3c>)
 80034ec:	f000 fe90 	bl	8004210 <_ZN14Prelling_input6updateEv>
 80034f0:	480a      	ldr	r0, [pc, #40]	; (800351c <_ZL19job_prelling_handlev+0x40>)
 80034f2:	f000 fe8d 	bl	8004210 <_ZN14Prelling_input6updateEv>
 80034f6:	480a      	ldr	r0, [pc, #40]	; (8003520 <_ZL19job_prelling_handlev+0x44>)
 80034f8:	f000 fe8a 	bl	8004210 <_ZN14Prelling_input6updateEv>
 80034fc:	4809      	ldr	r0, [pc, #36]	; (8003524 <_ZL19job_prelling_handlev+0x48>)
 80034fe:	f000 fe87 	bl	8004210 <_ZN14Prelling_input6updateEv>
 8003502:	4809      	ldr	r0, [pc, #36]	; (8003528 <_ZL19job_prelling_handlev+0x4c>)
 8003504:	f000 fe84 	bl	8004210 <_ZN14Prelling_input6updateEv>
 8003508:	2300      	movs	r3, #0
 800350a:	7023      	strb	r3, [r4, #0]
 800350c:	bd10      	pop	{r4, pc}
 800350e:	bf00      	nop
 8003510:	20000554 	.word	0x20000554
 8003514:	20000524 	.word	0x20000524
 8003518:	2000052c 	.word	0x2000052c
 800351c:	20000534 	.word	0x20000534
 8003520:	2000053c 	.word	0x2000053c
 8003524:	20000544 	.word	0x20000544
 8003528:	2000054c 	.word	0x2000054c

0800352c <_ZL8homeAxleP20AccelStepperExtendedP14Prelling_inputififf.constprop.10>:
 800352c:	e92d 43f8 	stmdb	sp!, {r3, r4, r5, r6, r7, r8, r9, lr}
 8003530:	ed2d 8b02 	vpush	{d8}
 8003534:	4691      	mov	r9, r2
 8003536:	4604      	mov	r4, r0
 8003538:	4688      	mov	r8, r1
 800353a:	eef0 8a40 	vmov.f32	s17, s0
 800353e:	f7ff feee 	bl	800331e <_ZN20AccelStepperExtended14getMaxSpeed_mmEv>
 8003542:	4620      	mov	r0, r4
 8003544:	eeb0 8a40 	vmov.f32	s16, s0
 8003548:	eeb2 0a04 	vmov.f32	s0, #36	; 0x41200000  10.0
 800354c:	f7ff fec4 	bl	80032d8 <_ZN20AccelStepperExtended14setMaxSpeed_mmEf>
 8003550:	4d2b      	ldr	r5, [pc, #172]	; (8003600 <_ZL8homeAxleP20AccelStepperExtendedP14Prelling_inputififf.constprop.10+0xd4>)
 8003552:	ed9f 0a2c 	vldr	s0, [pc, #176]	; 8003604 <_ZL8homeAxleP20AccelStepperExtendedP14Prelling_inputififf.constprop.10+0xd8>
 8003556:	4620      	mov	r0, r4
 8003558:	f7ff feb4 	bl	80032c4 <_ZN20AccelStepperExtended21setCurrentPosition_mmEf>
 800355c:	eeb1 0a68 	vneg.f32	s0, s17
 8003560:	4620      	mov	r0, r4
 8003562:	f7ff fea5 	bl	80032b0 <_ZN20AccelStepperExtended9moveTo_mmEf>
 8003566:	682f      	ldr	r7, [r5, #0]
 8003568:	444f      	add	r7, r9
 800356a:	4640      	mov	r0, r8
 800356c:	f000 fe64 	bl	8004238 <_ZN14Prelling_input3getEv>
 8003570:	b930      	cbnz	r0, 8003580 <_ZL8homeAxleP20AccelStepperExtendedP14Prelling_inputififf.constprop.10+0x54>
 8003572:	682b      	ldr	r3, [r5, #0]
 8003574:	429f      	cmp	r7, r3
 8003576:	d903      	bls.n	8003580 <_ZL8homeAxleP20AccelStepperExtendedP14Prelling_inputififf.constprop.10+0x54>
 8003578:	bf30      	wfi
 800357a:	f7ff ffaf 	bl	80034dc <_ZL19job_prelling_handlev>
 800357e:	e7f4      	b.n	800356a <_ZL8homeAxleP20AccelStepperExtendedP14Prelling_inputififf.constprop.10+0x3e>
 8003580:	2100      	movs	r1, #0
 8003582:	4620      	mov	r0, r4
 8003584:	f7ff fd89 	bl	800309a <_ZN12AccelStepper4moveEl>
 8003588:	ed9f 0a1e 	vldr	s0, [pc, #120]	; 8003604 <_ZL8homeAxleP20AccelStepperExtendedP14Prelling_inputififf.constprop.10+0xd8>
 800358c:	4620      	mov	r0, r4
 800358e:	f7ff fe99 	bl	80032c4 <_ZN20AccelStepperExtended21setCurrentPosition_mmEf>
 8003592:	eeb1 0a04 	vmov.f32	s0, #20	; 0x40a00000  5.0
 8003596:	4620      	mov	r0, r4
 8003598:	f7ff fe8a 	bl	80032b0 <_ZN20AccelStepperExtended9moveTo_mmEf>
 800359c:	4620      	mov	r0, r4
 800359e:	f7ff fe58 	bl	8003252 <_ZN12AccelStepper9isRunningEv>
 80035a2:	b118      	cbz	r0, 80035ac <_ZL8homeAxleP20AccelStepperExtendedP14Prelling_inputififf.constprop.10+0x80>
 80035a4:	bf30      	wfi
 80035a6:	f7ff ff99 	bl	80034dc <_ZL19job_prelling_handlev>
 80035aa:	e7f7      	b.n	800359c <_ZL8homeAxleP20AccelStepperExtendedP14Prelling_inputififf.constprop.10+0x70>
 80035ac:	eeb1 0a04 	vmov.f32	s0, #20	; 0x40a00000  5.0
 80035b0:	4620      	mov	r0, r4
 80035b2:	f7ff fe91 	bl	80032d8 <_ZN20AccelStepperExtended14setMaxSpeed_mmEf>
 80035b6:	eeba 0a04 	vmov.f32	s0, #164	; 0xc1200000 -10.0
 80035ba:	4620      	mov	r0, r4
 80035bc:	f7ff fe78 	bl	80032b0 <_ZN20AccelStepperExtended9moveTo_mmEf>
 80035c0:	682e      	ldr	r6, [r5, #0]
 80035c2:	eb06 0669 	add.w	r6, r6, r9, asr #1
 80035c6:	4640      	mov	r0, r8
 80035c8:	f000 fe36 	bl	8004238 <_ZN14Prelling_input3getEv>
 80035cc:	b910      	cbnz	r0, 80035d4 <_ZL8homeAxleP20AccelStepperExtendedP14Prelling_inputififf.constprop.10+0xa8>
 80035ce:	682b      	ldr	r3, [r5, #0]
 80035d0:	429e      	cmp	r6, r3
 80035d2:	d811      	bhi.n	80035f8 <_ZL8homeAxleP20AccelStepperExtendedP14Prelling_inputififf.constprop.10+0xcc>
 80035d4:	4620      	mov	r0, r4
 80035d6:	2100      	movs	r1, #0
 80035d8:	f7ff fd5f 	bl	800309a <_ZN12AccelStepper4moveEl>
 80035dc:	4620      	mov	r0, r4
 80035de:	ed9f 0a09 	vldr	s0, [pc, #36]	; 8003604 <_ZL8homeAxleP20AccelStepperExtendedP14Prelling_inputififf.constprop.10+0xd8>
 80035e2:	f7ff fe6f 	bl	80032c4 <_ZN20AccelStepperExtended21setCurrentPosition_mmEf>
 80035e6:	eeb0 0a48 	vmov.f32	s0, s16
 80035ea:	ecbd 8b02 	vpop	{d8}
 80035ee:	4620      	mov	r0, r4
 80035f0:	e8bd 43f8 	ldmia.w	sp!, {r3, r4, r5, r6, r7, r8, r9, lr}
 80035f4:	f7ff be70 	b.w	80032d8 <_ZN20AccelStepperExtended14setMaxSpeed_mmEf>
 80035f8:	bf30      	wfi
 80035fa:	f7ff ff6f 	bl	80034dc <_ZL19job_prelling_handlev>
 80035fe:	e7e2      	b.n	80035c6 <_ZL8homeAxleP20AccelStepperExtendedP14Prelling_inputififf.constprop.10+0x9a>
 8003600:	20000ffc 	.word	0x20000ffc
 8003604:	00000000 	.word	0x00000000

08003608 <_Z5setupv>:
 8003608:	b510      	push	{r4, lr}
 800360a:	4c5c      	ldr	r4, [pc, #368]	; (800377c <_Z5setupv+0x174>)
 800360c:	ed2d 8b02 	vpush	{d8}
 8003610:	eddf 8a5b 	vldr	s17, [pc, #364]	; 8003780 <_Z5setupv+0x178>
 8003614:	ed9f 8a5b 	vldr	s16, [pc, #364]	; 8003784 <_Z5setupv+0x17c>
 8003618:	4620      	mov	r0, r4
 800361a:	eeb3 0a09 	vmov.f32	s0, #57	; 0x41c80000  25.0
 800361e:	f7ff fe7b 	bl	8003318 <_ZN20AccelStepperExtended14setStepsPer_mmEf>
 8003622:	eeb0 0a68 	vmov.f32	s0, s17
 8003626:	4620      	mov	r0, r4
 8003628:	f7ff fe70 	bl	800330c <_ZN20AccelStepperExtended18setAcceleration_mmEf>
 800362c:	eeb0 0a48 	vmov.f32	s0, s16
 8003630:	4620      	mov	r0, r4
 8003632:	f7ff fe64 	bl	80032fe <_ZN20AccelStepperExtended18setMaxSpeed_cap_mmEf>
 8003636:	4620      	mov	r0, r4
 8003638:	4c53      	ldr	r4, [pc, #332]	; (8003788 <_Z5setupv+0x180>)
 800363a:	eeb0 0a48 	vmov.f32	s0, s16
 800363e:	f7ff fe4b 	bl	80032d8 <_ZN20AccelStepperExtended14setMaxSpeed_mmEf>
 8003642:	4620      	mov	r0, r4
 8003644:	eeb3 0a09 	vmov.f32	s0, #57	; 0x41c80000  25.0
 8003648:	f7ff fe66 	bl	8003318 <_ZN20AccelStepperExtended14setStepsPer_mmEf>
 800364c:	eeb0 0a68 	vmov.f32	s0, s17
 8003650:	4620      	mov	r0, r4
 8003652:	f7ff fe5b 	bl	800330c <_ZN20AccelStepperExtended18setAcceleration_mmEf>
 8003656:	eeb0 0a48 	vmov.f32	s0, s16
 800365a:	4620      	mov	r0, r4
 800365c:	f7ff fe4f 	bl	80032fe <_ZN20AccelStepperExtended18setMaxSpeed_cap_mmEf>
 8003660:	4620      	mov	r0, r4
 8003662:	4c4a      	ldr	r4, [pc, #296]	; (800378c <_Z5setupv+0x184>)
 8003664:	eeb0 0a48 	vmov.f32	s0, s16
 8003668:	f7ff fe36 	bl	80032d8 <_ZN20AccelStepperExtended14setMaxSpeed_mmEf>
 800366c:	4620      	mov	r0, r4
 800366e:	eeb3 0a09 	vmov.f32	s0, #57	; 0x41c80000  25.0
 8003672:	f7ff fe51 	bl	8003318 <_ZN20AccelStepperExtended14setStepsPer_mmEf>
 8003676:	eeb0 0a68 	vmov.f32	s0, s17
 800367a:	4620      	mov	r0, r4
 800367c:	f7ff fe46 	bl	800330c <_ZN20AccelStepperExtended18setAcceleration_mmEf>
 8003680:	eeb0 0a48 	vmov.f32	s0, s16
 8003684:	4620      	mov	r0, r4
 8003686:	f7ff fe3a 	bl	80032fe <_ZN20AccelStepperExtended18setMaxSpeed_cap_mmEf>
 800368a:	4620      	mov	r0, r4
 800368c:	4c40      	ldr	r4, [pc, #256]	; (8003790 <_Z5setupv+0x188>)
 800368e:	eeb0 0a48 	vmov.f32	s0, s16
 8003692:	f7ff fe21 	bl	80032d8 <_ZN20AccelStepperExtended14setMaxSpeed_mmEf>
 8003696:	4620      	mov	r0, r4
 8003698:	eeb3 0a09 	vmov.f32	s0, #57	; 0x41c80000  25.0
 800369c:	f7ff fe3c 	bl	8003318 <_ZN20AccelStepperExtended14setStepsPer_mmEf>
 80036a0:	eeb0 0a68 	vmov.f32	s0, s17
 80036a4:	4620      	mov	r0, r4
 80036a6:	f7ff fe31 	bl	800330c <_ZN20AccelStepperExtended18setAcceleration_mmEf>
 80036aa:	eeb0 0a48 	vmov.f32	s0, s16
 80036ae:	4620      	mov	r0, r4
 80036b0:	f7ff fe25 	bl	80032fe <_ZN20AccelStepperExtended18setMaxSpeed_cap_mmEf>
 80036b4:	4620      	mov	r0, r4
 80036b6:	4c37      	ldr	r4, [pc, #220]	; (8003794 <_Z5setupv+0x18c>)
 80036b8:	eeb0 0a48 	vmov.f32	s0, s16
 80036bc:	f7ff fe0c 	bl	80032d8 <_ZN20AccelStepperExtended14setMaxSpeed_mmEf>
 80036c0:	4620      	mov	r0, r4
 80036c2:	ed9f 0a35 	vldr	s0, [pc, #212]	; 8003798 <_Z5setupv+0x190>
 80036c6:	f7ff fe27 	bl	8003318 <_ZN20AccelStepperExtended14setStepsPer_mmEf>
 80036ca:	4620      	mov	r0, r4
 80036cc:	eeb2 0a08 	vmov.f32	s0, #40	; 0x41400000  12.0
 80036d0:	f7ff fe19 	bl	8003306 <_ZN20AccelStepperExtended25setMaxSpeed_multiplier_mmEf>
 80036d4:	eeb0 0a68 	vmov.f32	s0, s17
 80036d8:	4620      	mov	r0, r4
 80036da:	f7ff fe17 	bl	800330c <_ZN20AccelStepperExtended18setAcceleration_mmEf>
 80036de:	eeb0 0a48 	vmov.f32	s0, s16
 80036e2:	4620      	mov	r0, r4
 80036e4:	f7ff fe0b 	bl	80032fe <_ZN20AccelStepperExtended18setMaxSpeed_cap_mmEf>
 80036e8:	4620      	mov	r0, r4
 80036ea:	4c2c      	ldr	r4, [pc, #176]	; (800379c <_Z5setupv+0x194>)
 80036ec:	eeb0 0a48 	vmov.f32	s0, s16
 80036f0:	f7ff fdf2 	bl	80032d8 <_ZN20AccelStepperExtended14setMaxSpeed_mmEf>
 80036f4:	4620      	mov	r0, r4
 80036f6:	eeb3 0a09 	vmov.f32	s0, #57	; 0x41c80000  25.0
 80036fa:	f7ff fe0d 	bl	8003318 <_ZN20AccelStepperExtended14setStepsPer_mmEf>
 80036fe:	eeb0 0a68 	vmov.f32	s0, s17
 8003702:	4620      	mov	r0, r4
 8003704:	f7ff fe02 	bl	800330c <_ZN20AccelStepperExtended18setAcceleration_mmEf>
 8003708:	eeb0 0a48 	vmov.f32	s0, s16
 800370c:	4620      	mov	r0, r4
 800370e:	f7ff fdf6 	bl	80032fe <_ZN20AccelStepperExtended18setMaxSpeed_cap_mmEf>
 8003712:	4620      	mov	r0, r4
 8003714:	4c22      	ldr	r4, [pc, #136]	; (80037a0 <_Z5setupv+0x198>)
 8003716:	eeb0 0a48 	vmov.f32	s0, s16
 800371a:	f7ff fddd 	bl	80032d8 <_ZN20AccelStepperExtended14setMaxSpeed_mmEf>
 800371e:	4620      	mov	r0, r4
 8003720:	eeb3 0a09 	vmov.f32	s0, #57	; 0x41c80000  25.0
 8003724:	f7ff fdf8 	bl	8003318 <_ZN20AccelStepperExtended14setStepsPer_mmEf>
 8003728:	eeb0 0a68 	vmov.f32	s0, s17
 800372c:	4620      	mov	r0, r4
 800372e:	f7ff fded 	bl	800330c <_ZN20AccelStepperExtended18setAcceleration_mmEf>
 8003732:	eeb0 0a48 	vmov.f32	s0, s16
 8003736:	4620      	mov	r0, r4
 8003738:	f7ff fde1 	bl	80032fe <_ZN20AccelStepperExtended18setMaxSpeed_cap_mmEf>
 800373c:	4620      	mov	r0, r4
 800373e:	4c19      	ldr	r4, [pc, #100]	; (80037a4 <_Z5setupv+0x19c>)
 8003740:	eeb0 0a48 	vmov.f32	s0, s16
 8003744:	f7ff fdc8 	bl	80032d8 <_ZN20AccelStepperExtended14setMaxSpeed_mmEf>
 8003748:	4620      	mov	r0, r4
 800374a:	eeb3 0a09 	vmov.f32	s0, #57	; 0x41c80000  25.0
 800374e:	f7ff fde3 	bl	8003318 <_ZN20AccelStepperExtended14setStepsPer_mmEf>
 8003752:	eeb0 0a68 	vmov.f32	s0, s17
 8003756:	4620      	mov	r0, r4
 8003758:	f7ff fdd8 	bl	800330c <_ZN20AccelStepperExtended18setAcceleration_mmEf>
 800375c:	eeb0 0a48 	vmov.f32	s0, s16
 8003760:	4620      	mov	r0, r4
 8003762:	f7ff fdcc 	bl	80032fe <_ZN20AccelStepperExtended18setMaxSpeed_cap_mmEf>
 8003766:	eeb0 0a48 	vmov.f32	s0, s16
 800376a:	4620      	mov	r0, r4
 800376c:	f7ff fdb4 	bl	80032d8 <_ZN20AccelStepperExtended14setMaxSpeed_mmEf>
 8003770:	ecbd 8b02 	vpop	{d8}
 8003774:	e8bd 4010 	ldmia.w	sp!, {r4, lr}
 8003778:	f000 bd9a 	b.w	80042b0 <_Z9uart_initv>
 800377c:	200006f8 	.word	0x200006f8
 8003780:	447a0000 	.word	0x447a0000
 8003784:	43c80000 	.word	0x43c80000
 8003788:	20000754 	.word	0x20000754
 800378c:	200007b0 	.word	0x200007b0
 8003790:	2000080c 	.word	0x2000080c
 8003794:	2000069c 	.word	0x2000069c
 8003798:	400e38e3 	.word	0x400e38e3
 800379c:	20000588 	.word	0x20000588
 80037a0:	200005e4 	.word	0x200005e4
 80037a4:	20000640 	.word	0x20000640

080037a8 <_Z9timer_isrv>:
 80037a8:	b508      	push	{r3, lr}
 80037aa:	481d      	ldr	r0, [pc, #116]	; (8003820 <_Z9timer_isrv+0x78>)
 80037ac:	f7ff fd51 	bl	8003252 <_ZN12AccelStepper9isRunningEv>
 80037b0:	b110      	cbz	r0, 80037b8 <_Z9timer_isrv+0x10>
 80037b2:	481b      	ldr	r0, [pc, #108]	; (8003820 <_Z9timer_isrv+0x78>)
 80037b4:	f7ff fb8c 	bl	8002ed0 <_ZN12AccelStepper8runSpeedEv>
 80037b8:	481a      	ldr	r0, [pc, #104]	; (8003824 <_Z9timer_isrv+0x7c>)
 80037ba:	f7ff fd4a 	bl	8003252 <_ZN12AccelStepper9isRunningEv>
 80037be:	b110      	cbz	r0, 80037c6 <_Z9timer_isrv+0x1e>
 80037c0:	4818      	ldr	r0, [pc, #96]	; (8003824 <_Z9timer_isrv+0x7c>)
 80037c2:	f7ff fb85 	bl	8002ed0 <_ZN12AccelStepper8runSpeedEv>
 80037c6:	4818      	ldr	r0, [pc, #96]	; (8003828 <_Z9timer_isrv+0x80>)
 80037c8:	f7ff fd43 	bl	8003252 <_ZN12AccelStepper9isRunningEv>
 80037cc:	b110      	cbz	r0, 80037d4 <_Z9timer_isrv+0x2c>
 80037ce:	4816      	ldr	r0, [pc, #88]	; (8003828 <_Z9timer_isrv+0x80>)
 80037d0:	f7ff fb7e 	bl	8002ed0 <_ZN12AccelStepper8runSpeedEv>
 80037d4:	4815      	ldr	r0, [pc, #84]	; (800382c <_Z9timer_isrv+0x84>)
 80037d6:	f7ff fd3c 	bl	8003252 <_ZN12AccelStepper9isRunningEv>
 80037da:	b110      	cbz	r0, 80037e2 <_Z9timer_isrv+0x3a>
 80037dc:	4813      	ldr	r0, [pc, #76]	; (800382c <_Z9timer_isrv+0x84>)
 80037de:	f7ff fb77 	bl	8002ed0 <_ZN12AccelStepper8runSpeedEv>
 80037e2:	4813      	ldr	r0, [pc, #76]	; (8003830 <_Z9timer_isrv+0x88>)
 80037e4:	f7ff fd35 	bl	8003252 <_ZN12AccelStepper9isRunningEv>
 80037e8:	b110      	cbz	r0, 80037f0 <_Z9timer_isrv+0x48>
 80037ea:	4811      	ldr	r0, [pc, #68]	; (8003830 <_Z9timer_isrv+0x88>)
 80037ec:	f7ff fb70 	bl	8002ed0 <_ZN12AccelStepper8runSpeedEv>
 80037f0:	4810      	ldr	r0, [pc, #64]	; (8003834 <_Z9timer_isrv+0x8c>)
 80037f2:	f7ff fd2e 	bl	8003252 <_ZN12AccelStepper9isRunningEv>
 80037f6:	b110      	cbz	r0, 80037fe <_Z9timer_isrv+0x56>
 80037f8:	480e      	ldr	r0, [pc, #56]	; (8003834 <_Z9timer_isrv+0x8c>)
 80037fa:	f7ff fb69 	bl	8002ed0 <_ZN12AccelStepper8runSpeedEv>
 80037fe:	480e      	ldr	r0, [pc, #56]	; (8003838 <_Z9timer_isrv+0x90>)
 8003800:	f7ff fd27 	bl	8003252 <_ZN12AccelStepper9isRunningEv>
 8003804:	b110      	cbz	r0, 800380c <_Z9timer_isrv+0x64>
 8003806:	480c      	ldr	r0, [pc, #48]	; (8003838 <_Z9timer_isrv+0x90>)
 8003808:	f7ff fb62 	bl	8002ed0 <_ZN12AccelStepper8runSpeedEv>
 800380c:	480b      	ldr	r0, [pc, #44]	; (800383c <_Z9timer_isrv+0x94>)
 800380e:	f7ff fd20 	bl	8003252 <_ZN12AccelStepper9isRunningEv>
 8003812:	b120      	cbz	r0, 800381e <_Z9timer_isrv+0x76>
 8003814:	4809      	ldr	r0, [pc, #36]	; (800383c <_Z9timer_isrv+0x94>)
 8003816:	e8bd 4008 	ldmia.w	sp!, {r3, lr}
 800381a:	f7ff bb59 	b.w	8002ed0 <_ZN12AccelStepper8runSpeedEv>
 800381e:	bd08      	pop	{r3, pc}
 8003820:	200006f8 	.word	0x200006f8
 8003824:	20000754 	.word	0x20000754
 8003828:	200007b0 	.word	0x200007b0
 800382c:	2000080c 	.word	0x2000080c
 8003830:	2000069c 	.word	0x2000069c
 8003834:	20000588 	.word	0x20000588
 8003838:	200005e4 	.word	0x200005e4
 800383c:	20000640 	.word	0x20000640

08003840 <_Z11systick_isrv>:
 8003840:	b508      	push	{r3, lr}
 8003842:	4b0e      	ldr	r3, [pc, #56]	; (800387c <_Z11systick_isrv+0x3c>)
 8003844:	480e      	ldr	r0, [pc, #56]	; (8003880 <_Z11systick_isrv+0x40>)
 8003846:	2201      	movs	r2, #1
 8003848:	701a      	strb	r2, [r3, #0]
 800384a:	f7ff fb67 	bl	8002f1c <_ZN12AccelStepper15computeNewSpeedEv>
 800384e:	480d      	ldr	r0, [pc, #52]	; (8003884 <_Z11systick_isrv+0x44>)
 8003850:	f7ff fb64 	bl	8002f1c <_ZN12AccelStepper15computeNewSpeedEv>
 8003854:	480c      	ldr	r0, [pc, #48]	; (8003888 <_Z11systick_isrv+0x48>)
 8003856:	f7ff fb61 	bl	8002f1c <_ZN12AccelStepper15computeNewSpeedEv>
 800385a:	480c      	ldr	r0, [pc, #48]	; (800388c <_Z11systick_isrv+0x4c>)
 800385c:	f7ff fb5e 	bl	8002f1c <_ZN12AccelStepper15computeNewSpeedEv>
 8003860:	480b      	ldr	r0, [pc, #44]	; (8003890 <_Z11systick_isrv+0x50>)
 8003862:	f7ff fb5b 	bl	8002f1c <_ZN12AccelStepper15computeNewSpeedEv>
 8003866:	480b      	ldr	r0, [pc, #44]	; (8003894 <_Z11systick_isrv+0x54>)
 8003868:	f7ff fb58 	bl	8002f1c <_ZN12AccelStepper15computeNewSpeedEv>
 800386c:	480a      	ldr	r0, [pc, #40]	; (8003898 <_Z11systick_isrv+0x58>)
 800386e:	f7ff fb55 	bl	8002f1c <_ZN12AccelStepper15computeNewSpeedEv>
 8003872:	480a      	ldr	r0, [pc, #40]	; (800389c <_Z11systick_isrv+0x5c>)
 8003874:	e8bd 4008 	ldmia.w	sp!, {r3, lr}
 8003878:	f7ff bb50 	b.w	8002f1c <_ZN12AccelStepper15computeNewSpeedEv>
 800387c:	20000554 	.word	0x20000554
 8003880:	200006f8 	.word	0x200006f8
 8003884:	20000754 	.word	0x20000754
 8003888:	200007b0 	.word	0x200007b0
 800388c:	2000080c 	.word	0x2000080c
 8003890:	2000069c 	.word	0x2000069c
 8003894:	20000588 	.word	0x20000588
 8003898:	200005e4 	.word	0x200005e4
 800389c:	20000640 	.word	0x20000640

080038a0 <_Z4loopv>:
 80038a0:	b5f0      	push	{r4, r5, r6, r7, lr}
 80038a2:	ed2d 8b0a 	vpush	{d8-d12}
 80038a6:	b08f      	sub	sp, #60	; 0x3c
 80038a8:	f000 fd50 	bl	800434c <_Z9uart_loopv>
 80038ac:	f000 fd12 	bl	80042d4 <_Z22uart_command_availablev>
 80038b0:	2800      	cmp	r0, #0
 80038b2:	f000 80cc 	beq.w	8003a4e <_Z4loopv+0x1ae>
 80038b6:	48c8      	ldr	r0, [pc, #800]	; (8003bd8 <_Z4loopv+0x338>)
 80038b8:	f7ff fccb 	bl	8003252 <_ZN12AccelStepper9isRunningEv>
 80038bc:	2800      	cmp	r0, #0
 80038be:	f040 80c6 	bne.w	8003a4e <_Z4loopv+0x1ae>
 80038c2:	48c6      	ldr	r0, [pc, #792]	; (8003bdc <_Z4loopv+0x33c>)
 80038c4:	f7ff fcc5 	bl	8003252 <_ZN12AccelStepper9isRunningEv>
 80038c8:	2800      	cmp	r0, #0
 80038ca:	f040 80c0 	bne.w	8003a4e <_Z4loopv+0x1ae>
 80038ce:	48c4      	ldr	r0, [pc, #784]	; (8003be0 <_Z4loopv+0x340>)
 80038d0:	f7ff fcbf 	bl	8003252 <_ZN12AccelStepper9isRunningEv>
 80038d4:	2800      	cmp	r0, #0
 80038d6:	f040 80ba 	bne.w	8003a4e <_Z4loopv+0x1ae>
 80038da:	48c2      	ldr	r0, [pc, #776]	; (8003be4 <_Z4loopv+0x344>)
 80038dc:	f7ff fcb9 	bl	8003252 <_ZN12AccelStepper9isRunningEv>
 80038e0:	2800      	cmp	r0, #0
 80038e2:	f040 80b4 	bne.w	8003a4e <_Z4loopv+0x1ae>
 80038e6:	48c0      	ldr	r0, [pc, #768]	; (8003be8 <_Z4loopv+0x348>)
 80038e8:	f7ff fcb3 	bl	8003252 <_ZN12AccelStepper9isRunningEv>
 80038ec:	2800      	cmp	r0, #0
 80038ee:	f040 80ae 	bne.w	8003a4e <_Z4loopv+0x1ae>
 80038f2:	48be      	ldr	r0, [pc, #760]	; (8003bec <_Z4loopv+0x34c>)
 80038f4:	f7ff fcad 	bl	8003252 <_ZN12AccelStepper9isRunningEv>
 80038f8:	2800      	cmp	r0, #0
 80038fa:	f040 80a8 	bne.w	8003a4e <_Z4loopv+0x1ae>
 80038fe:	48bc      	ldr	r0, [pc, #752]	; (8003bf0 <_Z4loopv+0x350>)
 8003900:	f7ff fca7 	bl	8003252 <_ZN12AccelStepper9isRunningEv>
 8003904:	2800      	cmp	r0, #0
 8003906:	f040 80a2 	bne.w	8003a4e <_Z4loopv+0x1ae>
 800390a:	48ba      	ldr	r0, [pc, #744]	; (8003bf4 <_Z4loopv+0x354>)
 800390c:	f7ff fca1 	bl	8003252 <_ZN12AccelStepper9isRunningEv>
 8003910:	2800      	cmp	r0, #0
 8003912:	f040 809c 	bne.w	8003a4e <_Z4loopv+0x1ae>
 8003916:	a801      	add	r0, sp, #4
 8003918:	f000 fce2 	bl	80042e0 <_Z16uart_command_getv>
 800391c:	f89d 2004 	ldrb.w	r2, [sp, #4]
 8003920:	9b02      	ldr	r3, [sp, #8]
 8003922:	ed9d ba03 	vldr	s22, [sp, #12]
 8003926:	ed9d 8a04 	vldr	s16, [sp, #16]
 800392a:	eddd aa05 	vldr	s21, [sp, #20]
 800392e:	ed9d aa06 	vldr	s20, [sp, #24]
 8003932:	eddd 9a07 	vldr	s19, [sp, #28]
 8003936:	ed9d 9a08 	vldr	s18, [sp, #32]
 800393a:	eddd 8a09 	vldr	s17, [sp, #36]	; 0x24
 800393e:	2a47      	cmp	r2, #71	; 0x47
 8003940:	f040 81ed 	bne.w	8003d1e <_Z4loopv+0x47e>
 8003944:	2b01      	cmp	r3, #1
 8003946:	f200 8089 	bhi.w	8003a5c <_Z4loopv+0x1bc>
 800394a:	ed9d ca0a 	vldr	s24, [sp, #40]	; 0x28
 800394e:	eddf bab8 	vldr	s23, [pc, #736]	; 8003c30 <_Z4loopv+0x390>
 8003952:	eeb4 ca6b 	vcmp.f32	s24, s23
 8003956:	eef1 fa10 	vmrs	APSR_nzcv, fpscr
 800395a:	d027      	beq.n	80039ac <_Z4loopv+0x10c>
 800395c:	eeb0 0a4c 	vmov.f32	s0, s24
 8003960:	489d      	ldr	r0, [pc, #628]	; (8003bd8 <_Z4loopv+0x338>)
 8003962:	f7ff fcb9 	bl	80032d8 <_ZN20AccelStepperExtended14setMaxSpeed_mmEf>
 8003966:	eeb0 0a4c 	vmov.f32	s0, s24
 800396a:	489c      	ldr	r0, [pc, #624]	; (8003bdc <_Z4loopv+0x33c>)
 800396c:	f7ff fcb4 	bl	80032d8 <_ZN20AccelStepperExtended14setMaxSpeed_mmEf>
 8003970:	eeb0 0a4c 	vmov.f32	s0, s24
 8003974:	489a      	ldr	r0, [pc, #616]	; (8003be0 <_Z4loopv+0x340>)
 8003976:	f7ff fcaf 	bl	80032d8 <_ZN20AccelStepperExtended14setMaxSpeed_mmEf>
 800397a:	eeb0 0a4c 	vmov.f32	s0, s24
 800397e:	4899      	ldr	r0, [pc, #612]	; (8003be4 <_Z4loopv+0x344>)
 8003980:	f7ff fcaa 	bl	80032d8 <_ZN20AccelStepperExtended14setMaxSpeed_mmEf>
 8003984:	eeb0 0a4c 	vmov.f32	s0, s24
 8003988:	4897      	ldr	r0, [pc, #604]	; (8003be8 <_Z4loopv+0x348>)
 800398a:	f7ff fca5 	bl	80032d8 <_ZN20AccelStepperExtended14setMaxSpeed_mmEf>
 800398e:	eeb0 0a4c 	vmov.f32	s0, s24
 8003992:	4896      	ldr	r0, [pc, #600]	; (8003bec <_Z4loopv+0x34c>)
 8003994:	f7ff fca0 	bl	80032d8 <_ZN20AccelStepperExtended14setMaxSpeed_mmEf>
 8003998:	eeb0 0a4c 	vmov.f32	s0, s24
 800399c:	4894      	ldr	r0, [pc, #592]	; (8003bf0 <_Z4loopv+0x350>)
 800399e:	f7ff fc9b 	bl	80032d8 <_ZN20AccelStepperExtended14setMaxSpeed_mmEf>
 80039a2:	eeb0 0a4c 	vmov.f32	s0, s24
 80039a6:	4893      	ldr	r0, [pc, #588]	; (8003bf4 <_Z4loopv+0x354>)
 80039a8:	f7ff fc96 	bl	80032d8 <_ZN20AccelStepperExtended14setMaxSpeed_mmEf>
 80039ac:	eeb4 ba6b 	vcmp.f32	s22, s23
 80039b0:	eef1 fa10 	vmrs	APSR_nzcv, fpscr
 80039b4:	d004      	beq.n	80039c0 <_Z4loopv+0x120>
 80039b6:	eeb0 0a4b 	vmov.f32	s0, s22
 80039ba:	4887      	ldr	r0, [pc, #540]	; (8003bd8 <_Z4loopv+0x338>)
 80039bc:	f7ff fc78 	bl	80032b0 <_ZN20AccelStepperExtended9moveTo_mmEf>
 80039c0:	eeb4 8a6b 	vcmp.f32	s16, s23
 80039c4:	eef1 fa10 	vmrs	APSR_nzcv, fpscr
 80039c8:	d009      	beq.n	80039de <_Z4loopv+0x13e>
 80039ca:	eeb0 0a48 	vmov.f32	s0, s16
 80039ce:	4883      	ldr	r0, [pc, #524]	; (8003bdc <_Z4loopv+0x33c>)
 80039d0:	f7ff fc6e 	bl	80032b0 <_ZN20AccelStepperExtended9moveTo_mmEf>
 80039d4:	eeb0 0a48 	vmov.f32	s0, s16
 80039d8:	4881      	ldr	r0, [pc, #516]	; (8003be0 <_Z4loopv+0x340>)
 80039da:	f7ff fc69 	bl	80032b0 <_ZN20AccelStepperExtended9moveTo_mmEf>
 80039de:	eef4 aa6b 	vcmp.f32	s21, s23
 80039e2:	eef1 fa10 	vmrs	APSR_nzcv, fpscr
 80039e6:	d004      	beq.n	80039f2 <_Z4loopv+0x152>
 80039e8:	eeb0 0a6a 	vmov.f32	s0, s21
 80039ec:	487d      	ldr	r0, [pc, #500]	; (8003be4 <_Z4loopv+0x344>)
 80039ee:	f7ff fc5f 	bl	80032b0 <_ZN20AccelStepperExtended9moveTo_mmEf>
 80039f2:	eeb4 aa6b 	vcmp.f32	s20, s23
 80039f6:	eef1 fa10 	vmrs	APSR_nzcv, fpscr
 80039fa:	d004      	beq.n	8003a06 <_Z4loopv+0x166>
 80039fc:	eeb0 0a4a 	vmov.f32	s0, s20
 8003a00:	4879      	ldr	r0, [pc, #484]	; (8003be8 <_Z4loopv+0x348>)
 8003a02:	f7ff fc55 	bl	80032b0 <_ZN20AccelStepperExtended9moveTo_mmEf>
 8003a06:	eef4 9a6b 	vcmp.f32	s19, s23
 8003a0a:	eef1 fa10 	vmrs	APSR_nzcv, fpscr
 8003a0e:	d004      	beq.n	8003a1a <_Z4loopv+0x17a>
 8003a10:	eeb0 0a69 	vmov.f32	s0, s19
 8003a14:	4875      	ldr	r0, [pc, #468]	; (8003bec <_Z4loopv+0x34c>)
 8003a16:	f7ff fc4b 	bl	80032b0 <_ZN20AccelStepperExtended9moveTo_mmEf>
 8003a1a:	eeb4 9a6b 	vcmp.f32	s18, s23
 8003a1e:	eef1 fa10 	vmrs	APSR_nzcv, fpscr
 8003a22:	d004      	beq.n	8003a2e <_Z4loopv+0x18e>
 8003a24:	eeb0 0a49 	vmov.f32	s0, s18
 8003a28:	4871      	ldr	r0, [pc, #452]	; (8003bf0 <_Z4loopv+0x350>)
 8003a2a:	f7ff fc41 	bl	80032b0 <_ZN20AccelStepperExtended9moveTo_mmEf>
 8003a2e:	eef4 8a6b 	vcmp.f32	s17, s23
 8003a32:	eef1 fa10 	vmrs	APSR_nzcv, fpscr
 8003a36:	d004      	beq.n	8003a42 <_Z4loopv+0x1a2>
 8003a38:	eeb0 0a68 	vmov.f32	s0, s17
 8003a3c:	486d      	ldr	r0, [pc, #436]	; (8003bf4 <_Z4loopv+0x354>)
 8003a3e:	f7ff fc37 	bl	80032b0 <_ZN20AccelStepperExtended9moveTo_mmEf>
 8003a42:	f000 fc47 	bl	80042d4 <_Z22uart_command_availablev>
 8003a46:	b910      	cbnz	r0, 8003a4e <_Z4loopv+0x1ae>
 8003a48:	486b      	ldr	r0, [pc, #428]	; (8003bf8 <_Z4loopv+0x358>)
 8003a4a:	f000 fc6d 	bl	8004328 <_Z12uart_messagePKc>
 8003a4e:	b00f      	add	sp, #60	; 0x3c
 8003a50:	ecbd 8b0a 	vpop	{d8-d12}
 8003a54:	e8bd 40f0 	ldmia.w	sp!, {r4, r5, r6, r7, lr}
 8003a58:	f7ff bd40 	b.w	80034dc <_ZL19job_prelling_handlev>
 8003a5c:	2b1c      	cmp	r3, #28
 8003a5e:	f040 80ed 	bne.w	8003c3c <_Z4loopv+0x39c>
 8003a62:	ed9f 0a66 	vldr	s0, [pc, #408]	; 8003bfc <_Z4loopv+0x35c>
 8003a66:	4966      	ldr	r1, [pc, #408]	; (8003c00 <_Z4loopv+0x360>)
 8003a68:	485e      	ldr	r0, [pc, #376]	; (8003be4 <_Z4loopv+0x344>)
 8003a6a:	4c66      	ldr	r4, [pc, #408]	; (8003c04 <_Z4loopv+0x364>)
 8003a6c:	4e66      	ldr	r6, [pc, #408]	; (8003c08 <_Z4loopv+0x368>)
 8003a6e:	4f67      	ldr	r7, [pc, #412]	; (8003c0c <_Z4loopv+0x36c>)
 8003a70:	f241 3288 	movw	r2, #5000	; 0x1388
 8003a74:	f7ff fd5a 	bl	800352c <_ZL8homeAxleP20AccelStepperExtendedP14Prelling_inputififf.constprop.10>
 8003a78:	f242 7210 	movw	r2, #10000	; 0x2710
 8003a7c:	4964      	ldr	r1, [pc, #400]	; (8003c10 <_Z4loopv+0x370>)
 8003a7e:	ed9f 0a65 	vldr	s0, [pc, #404]	; 8003c14 <_Z4loopv+0x374>
 8003a82:	4855      	ldr	r0, [pc, #340]	; (8003bd8 <_Z4loopv+0x338>)
 8003a84:	f7ff fd52 	bl	800352c <_ZL8homeAxleP20AccelStepperExtendedP14Prelling_inputififf.constprop.10>
 8003a88:	4854      	ldr	r0, [pc, #336]	; (8003bdc <_Z4loopv+0x33c>)
 8003a8a:	f7ff fc48 	bl	800331e <_ZN20AccelStepperExtended14getMaxSpeed_mmEv>
 8003a8e:	4853      	ldr	r0, [pc, #332]	; (8003bdc <_Z4loopv+0x33c>)
 8003a90:	eeb0 8a40 	vmov.f32	s16, s0
 8003a94:	ed9f 0a60 	vldr	s0, [pc, #384]	; 8003c18 <_Z4loopv+0x378>
 8003a98:	f7ff fc1e 	bl	80032d8 <_ZN20AccelStepperExtended14setMaxSpeed_mmEf>
 8003a9c:	ed9f 0a5e 	vldr	s0, [pc, #376]	; 8003c18 <_Z4loopv+0x378>
 8003aa0:	484f      	ldr	r0, [pc, #316]	; (8003be0 <_Z4loopv+0x340>)
 8003aa2:	f7ff fc19 	bl	80032d8 <_ZN20AccelStepperExtended14setMaxSpeed_mmEf>
 8003aa6:	ed9f 0a5d 	vldr	s0, [pc, #372]	; 8003c1c <_Z4loopv+0x37c>
 8003aaa:	484c      	ldr	r0, [pc, #304]	; (8003bdc <_Z4loopv+0x33c>)
 8003aac:	f7ff fc0a 	bl	80032c4 <_ZN20AccelStepperExtended21setCurrentPosition_mmEf>
 8003ab0:	ed9f 0a5a 	vldr	s0, [pc, #360]	; 8003c1c <_Z4loopv+0x37c>
 8003ab4:	484a      	ldr	r0, [pc, #296]	; (8003be0 <_Z4loopv+0x340>)
 8003ab6:	f7ff fc05 	bl	80032c4 <_ZN20AccelStepperExtended21setCurrentPosition_mmEf>
 8003aba:	ed9f 0a59 	vldr	s0, [pc, #356]	; 8003c20 <_Z4loopv+0x380>
 8003abe:	4847      	ldr	r0, [pc, #284]	; (8003bdc <_Z4loopv+0x33c>)
 8003ac0:	f7ff fbf6 	bl	80032b0 <_ZN20AccelStepperExtended9moveTo_mmEf>
 8003ac4:	ed9f 0a56 	vldr	s0, [pc, #344]	; 8003c20 <_Z4loopv+0x380>
 8003ac8:	4845      	ldr	r0, [pc, #276]	; (8003be0 <_Z4loopv+0x340>)
 8003aca:	f7ff fbf1 	bl	80032b0 <_ZN20AccelStepperExtended9moveTo_mmEf>
 8003ace:	6825      	ldr	r5, [r4, #0]
 8003ad0:	f505 757a 	add.w	r5, r5, #1000	; 0x3e8
 8003ad4:	4630      	mov	r0, r6
 8003ad6:	f000 fbaf 	bl	8004238 <_ZN14Prelling_input3getEv>
 8003ada:	2800      	cmp	r0, #0
 8003adc:	d167      	bne.n	8003bae <_Z4loopv+0x30e>
 8003ade:	6823      	ldr	r3, [r4, #0]
 8003ae0:	429d      	cmp	r5, r3
 8003ae2:	d86a      	bhi.n	8003bba <_Z4loopv+0x31a>
 8003ae4:	2100      	movs	r1, #0
 8003ae6:	483d      	ldr	r0, [pc, #244]	; (8003bdc <_Z4loopv+0x33c>)
 8003ae8:	4d3c      	ldr	r5, [pc, #240]	; (8003bdc <_Z4loopv+0x33c>)
 8003aea:	4e3d      	ldr	r6, [pc, #244]	; (8003be0 <_Z4loopv+0x340>)
 8003aec:	f7ff fad5 	bl	800309a <_ZN12AccelStepper4moveEl>
 8003af0:	2100      	movs	r1, #0
 8003af2:	483b      	ldr	r0, [pc, #236]	; (8003be0 <_Z4loopv+0x340>)
 8003af4:	f7ff fad1 	bl	800309a <_ZN12AccelStepper4moveEl>
 8003af8:	ed9f 0a48 	vldr	s0, [pc, #288]	; 8003c1c <_Z4loopv+0x37c>
 8003afc:	4837      	ldr	r0, [pc, #220]	; (8003bdc <_Z4loopv+0x33c>)
 8003afe:	f7ff fbe1 	bl	80032c4 <_ZN20AccelStepperExtended21setCurrentPosition_mmEf>
 8003b02:	ed9f 0a46 	vldr	s0, [pc, #280]	; 8003c1c <_Z4loopv+0x37c>
 8003b06:	4836      	ldr	r0, [pc, #216]	; (8003be0 <_Z4loopv+0x340>)
 8003b08:	f7ff fbdc 	bl	80032c4 <_ZN20AccelStepperExtended21setCurrentPosition_mmEf>
 8003b0c:	ed9f 0a45 	vldr	s0, [pc, #276]	; 8003c24 <_Z4loopv+0x384>
 8003b10:	4832      	ldr	r0, [pc, #200]	; (8003bdc <_Z4loopv+0x33c>)
 8003b12:	f7ff fbcd 	bl	80032b0 <_ZN20AccelStepperExtended9moveTo_mmEf>
 8003b16:	ed9f 0a43 	vldr	s0, [pc, #268]	; 8003c24 <_Z4loopv+0x384>
 8003b1a:	4831      	ldr	r0, [pc, #196]	; (8003be0 <_Z4loopv+0x340>)
 8003b1c:	f7ff fbc8 	bl	80032b0 <_ZN20AccelStepperExtended9moveTo_mmEf>
 8003b20:	4628      	mov	r0, r5
 8003b22:	f7ff fb96 	bl	8003252 <_ZN12AccelStepper9isRunningEv>
 8003b26:	2800      	cmp	r0, #0
 8003b28:	d14b      	bne.n	8003bc2 <_Z4loopv+0x322>
 8003b2a:	4630      	mov	r0, r6
 8003b2c:	f7ff fb91 	bl	8003252 <_ZN12AccelStepper9isRunningEv>
 8003b30:	2800      	cmp	r0, #0
 8003b32:	d146      	bne.n	8003bc2 <_Z4loopv+0x322>
 8003b34:	ed9f 0a3c 	vldr	s0, [pc, #240]	; 8003c28 <_Z4loopv+0x388>
 8003b38:	4828      	ldr	r0, [pc, #160]	; (8003bdc <_Z4loopv+0x33c>)
 8003b3a:	4e33      	ldr	r6, [pc, #204]	; (8003c08 <_Z4loopv+0x368>)
 8003b3c:	4f33      	ldr	r7, [pc, #204]	; (8003c0c <_Z4loopv+0x36c>)
 8003b3e:	f7ff fbcb 	bl	80032d8 <_ZN20AccelStepperExtended14setMaxSpeed_mmEf>
 8003b42:	ed9f 0a39 	vldr	s0, [pc, #228]	; 8003c28 <_Z4loopv+0x388>
 8003b46:	4826      	ldr	r0, [pc, #152]	; (8003be0 <_Z4loopv+0x340>)
 8003b48:	f7ff fbc6 	bl	80032d8 <_ZN20AccelStepperExtended14setMaxSpeed_mmEf>
 8003b4c:	ed9f 0a37 	vldr	s0, [pc, #220]	; 8003c2c <_Z4loopv+0x38c>
 8003b50:	4822      	ldr	r0, [pc, #136]	; (8003bdc <_Z4loopv+0x33c>)
 8003b52:	f7ff fbad 	bl	80032b0 <_ZN20AccelStepperExtended9moveTo_mmEf>
 8003b56:	ed9f 0a35 	vldr	s0, [pc, #212]	; 8003c2c <_Z4loopv+0x38c>
 8003b5a:	4821      	ldr	r0, [pc, #132]	; (8003be0 <_Z4loopv+0x340>)
 8003b5c:	f7ff fba8 	bl	80032b0 <_ZN20AccelStepperExtended9moveTo_mmEf>
 8003b60:	6825      	ldr	r5, [r4, #0]
 8003b62:	f505 75fa 	add.w	r5, r5, #500	; 0x1f4
 8003b66:	4630      	mov	r0, r6
 8003b68:	f000 fb66 	bl	8004238 <_ZN14Prelling_input3getEv>
 8003b6c:	bb68      	cbnz	r0, 8003bca <_Z4loopv+0x32a>
 8003b6e:	6823      	ldr	r3, [r4, #0]
 8003b70:	429d      	cmp	r5, r3
 8003b72:	d85f      	bhi.n	8003c34 <_Z4loopv+0x394>
 8003b74:	2100      	movs	r1, #0
 8003b76:	4819      	ldr	r0, [pc, #100]	; (8003bdc <_Z4loopv+0x33c>)
 8003b78:	f7ff fa8f 	bl	800309a <_ZN12AccelStepper4moveEl>
 8003b7c:	2100      	movs	r1, #0
 8003b7e:	4818      	ldr	r0, [pc, #96]	; (8003be0 <_Z4loopv+0x340>)
 8003b80:	f7ff fa8b 	bl	800309a <_ZN12AccelStepper4moveEl>
 8003b84:	ed9f 0a25 	vldr	s0, [pc, #148]	; 8003c1c <_Z4loopv+0x37c>
 8003b88:	4814      	ldr	r0, [pc, #80]	; (8003bdc <_Z4loopv+0x33c>)
 8003b8a:	f7ff fb9b 	bl	80032c4 <_ZN20AccelStepperExtended21setCurrentPosition_mmEf>
 8003b8e:	ed9f 0a23 	vldr	s0, [pc, #140]	; 8003c1c <_Z4loopv+0x37c>
 8003b92:	4813      	ldr	r0, [pc, #76]	; (8003be0 <_Z4loopv+0x340>)
 8003b94:	f7ff fb96 	bl	80032c4 <_ZN20AccelStepperExtended21setCurrentPosition_mmEf>
 8003b98:	eeb0 0a48 	vmov.f32	s0, s16
 8003b9c:	480f      	ldr	r0, [pc, #60]	; (8003bdc <_Z4loopv+0x33c>)
 8003b9e:	f7ff fb9b 	bl	80032d8 <_ZN20AccelStepperExtended14setMaxSpeed_mmEf>
 8003ba2:	eeb0 0a48 	vmov.f32	s0, s16
 8003ba6:	480e      	ldr	r0, [pc, #56]	; (8003be0 <_Z4loopv+0x340>)
 8003ba8:	f7ff fb96 	bl	80032d8 <_ZN20AccelStepperExtended14setMaxSpeed_mmEf>
 8003bac:	e749      	b.n	8003a42 <_Z4loopv+0x1a2>
 8003bae:	4638      	mov	r0, r7
 8003bb0:	f000 fb42 	bl	8004238 <_ZN14Prelling_input3getEv>
 8003bb4:	2800      	cmp	r0, #0
 8003bb6:	d092      	beq.n	8003ade <_Z4loopv+0x23e>
 8003bb8:	e794      	b.n	8003ae4 <_Z4loopv+0x244>
 8003bba:	bf30      	wfi
 8003bbc:	f7ff fc8e 	bl	80034dc <_ZL19job_prelling_handlev>
 8003bc0:	e788      	b.n	8003ad4 <_Z4loopv+0x234>
 8003bc2:	bf30      	wfi
 8003bc4:	f7ff fc8a 	bl	80034dc <_ZL19job_prelling_handlev>
 8003bc8:	e7aa      	b.n	8003b20 <_Z4loopv+0x280>
 8003bca:	4638      	mov	r0, r7
 8003bcc:	f000 fb34 	bl	8004238 <_ZN14Prelling_input3getEv>
 8003bd0:	2800      	cmp	r0, #0
 8003bd2:	d0cc      	beq.n	8003b6e <_Z4loopv+0x2ce>
 8003bd4:	e7ce      	b.n	8003b74 <_Z4loopv+0x2d4>
 8003bd6:	bf00      	nop
 8003bd8:	200006f8 	.word	0x200006f8
 8003bdc:	20000754 	.word	0x20000754
 8003be0:	200007b0 	.word	0x200007b0
 8003be4:	2000080c 	.word	0x2000080c
 8003be8:	2000069c 	.word	0x2000069c
 8003bec:	20000588 	.word	0x20000588
 8003bf0:	200005e4 	.word	0x200005e4
 8003bf4:	20000640 	.word	0x20000640
 8003bf8:	080049cb 	.word	0x080049cb
 8003bfc:	43fa0000 	.word	0x43fa0000
 8003c00:	2000053c 	.word	0x2000053c
 8003c04:	20000ffc 	.word	0x20000ffc
 8003c08:	2000052c 	.word	0x2000052c
 8003c0c:	20000534 	.word	0x20000534
 8003c10:	20000524 	.word	0x20000524
 8003c14:	447a0000 	.word	0x447a0000
 8003c18:	461c4000 	.word	0x461c4000
 8003c1c:	00000000 	.word	0x00000000
 8003c20:	42480000 	.word	0x42480000
 8003c24:	c2480000 	.word	0xc2480000
 8003c28:	459c4000 	.word	0x459c4000
 8003c2c:	42c80000 	.word	0x42c80000
 8003c30:	4a800000 	.word	0x4a800000
 8003c34:	bf30      	wfi
 8003c36:	f7ff fc51 	bl	80034dc <_ZL19job_prelling_handlev>
 8003c3a:	e794      	b.n	8003b66 <_Z4loopv+0x2c6>
 8003c3c:	2b04      	cmp	r3, #4
 8003c3e:	d11c      	bne.n	8003c7a <_Z4loopv+0x3da>
 8003c40:	eddd 7a0d 	vldr	s15, [sp, #52]	; 0x34
 8003c44:	ed1f 7a06 	vldr	s14, [pc, #-24]	; 8003c30 <_Z4loopv+0x390>
 8003c48:	eef4 7a47 	vcmp.f32	s15, s14
 8003c4c:	eef1 fa10 	vmrs	APSR_nzcv, fpscr
 8003c50:	f43f aef7 	beq.w	8003a42 <_Z4loopv+0x1a2>
 8003c54:	ee17 0a90 	vmov	r0, s15
 8003c58:	f7fc fc2a 	bl	80004b0 <__aeabi_f2d>
 8003c5c:	2200      	movs	r2, #0
 8003c5e:	4bba      	ldr	r3, [pc, #744]	; (8003f48 <_Z4loopv+0x6a8>)
 8003c60:	f7fc fc7e 	bl	8000560 <__aeabi_dmul>
 8003c64:	ec41 0b10 	vmov	d0, r0, r1
 8003c68:	f000 fca4 	bl	80045b4 <round>
 8003c6c:	ec51 0b10 	vmov	r0, r1, d0
 8003c70:	f7fc ff26 	bl	8000ac0 <__aeabi_d2iz>
 8003c74:	f000 fa80 	bl	8004178 <_Z5delayi>
 8003c78:	e6e3      	b.n	8003a42 <_Z4loopv+0x1a2>
 8003c7a:	2b5c      	cmp	r3, #92	; 0x5c
 8003c7c:	f040 81dc 	bne.w	8004038 <_Z4loopv+0x798>
 8003c80:	eddf bac0 	vldr	s23, [pc, #768]	; 8003f84 <_Z4loopv+0x6e4>
 8003c84:	eeb4 ba6b 	vcmp.f32	s22, s23
 8003c88:	eef1 fa10 	vmrs	APSR_nzcv, fpscr
 8003c8c:	d004      	beq.n	8003c98 <_Z4loopv+0x3f8>
 8003c8e:	eeb0 0a4b 	vmov.f32	s0, s22
 8003c92:	48ae      	ldr	r0, [pc, #696]	; (8003f4c <_Z4loopv+0x6ac>)
 8003c94:	f7ff fb16 	bl	80032c4 <_ZN20AccelStepperExtended21setCurrentPosition_mmEf>
 8003c98:	eeb4 8a6b 	vcmp.f32	s16, s23
 8003c9c:	eef1 fa10 	vmrs	APSR_nzcv, fpscr
 8003ca0:	d009      	beq.n	8003cb6 <_Z4loopv+0x416>
 8003ca2:	eeb0 0a48 	vmov.f32	s0, s16
 8003ca6:	48aa      	ldr	r0, [pc, #680]	; (8003f50 <_Z4loopv+0x6b0>)
 8003ca8:	f7ff fb0c 	bl	80032c4 <_ZN20AccelStepperExtended21setCurrentPosition_mmEf>
 8003cac:	eeb0 0a48 	vmov.f32	s0, s16
 8003cb0:	48a8      	ldr	r0, [pc, #672]	; (8003f54 <_Z4loopv+0x6b4>)
 8003cb2:	f7ff fb07 	bl	80032c4 <_ZN20AccelStepperExtended21setCurrentPosition_mmEf>
 8003cb6:	eef4 aa6b 	vcmp.f32	s21, s23
 8003cba:	eef1 fa10 	vmrs	APSR_nzcv, fpscr
 8003cbe:	d004      	beq.n	8003cca <_Z4loopv+0x42a>
 8003cc0:	eeb0 0a6a 	vmov.f32	s0, s21
 8003cc4:	48a4      	ldr	r0, [pc, #656]	; (8003f58 <_Z4loopv+0x6b8>)
 8003cc6:	f7ff fafd 	bl	80032c4 <_ZN20AccelStepperExtended21setCurrentPosition_mmEf>
 8003cca:	eeb4 aa6b 	vcmp.f32	s20, s23
 8003cce:	eef1 fa10 	vmrs	APSR_nzcv, fpscr
 8003cd2:	d004      	beq.n	8003cde <_Z4loopv+0x43e>
 8003cd4:	eeb0 0a4a 	vmov.f32	s0, s20
 8003cd8:	48a0      	ldr	r0, [pc, #640]	; (8003f5c <_Z4loopv+0x6bc>)
 8003cda:	f7ff faf3 	bl	80032c4 <_ZN20AccelStepperExtended21setCurrentPosition_mmEf>
 8003cde:	eef4 9a6b 	vcmp.f32	s19, s23
 8003ce2:	eef1 fa10 	vmrs	APSR_nzcv, fpscr
 8003ce6:	d004      	beq.n	8003cf2 <_Z4loopv+0x452>
 8003ce8:	eeb0 0a69 	vmov.f32	s0, s19
 8003cec:	489c      	ldr	r0, [pc, #624]	; (8003f60 <_Z4loopv+0x6c0>)
 8003cee:	f7ff fae9 	bl	80032c4 <_ZN20AccelStepperExtended21setCurrentPosition_mmEf>
 8003cf2:	eeb4 9a6b 	vcmp.f32	s18, s23
 8003cf6:	eef1 fa10 	vmrs	APSR_nzcv, fpscr
 8003cfa:	d004      	beq.n	8003d06 <_Z4loopv+0x466>
 8003cfc:	eeb0 0a49 	vmov.f32	s0, s18
 8003d00:	4898      	ldr	r0, [pc, #608]	; (8003f64 <_Z4loopv+0x6c4>)
 8003d02:	f7ff fadf 	bl	80032c4 <_ZN20AccelStepperExtended21setCurrentPosition_mmEf>
 8003d06:	eef4 8a6b 	vcmp.f32	s17, s23
 8003d0a:	eef1 fa10 	vmrs	APSR_nzcv, fpscr
 8003d0e:	f43f ae98 	beq.w	8003a42 <_Z4loopv+0x1a2>
 8003d12:	eeb0 0a68 	vmov.f32	s0, s17
 8003d16:	4894      	ldr	r0, [pc, #592]	; (8003f68 <_Z4loopv+0x6c8>)
 8003d18:	f7ff fad4 	bl	80032c4 <_ZN20AccelStepperExtended21setCurrentPosition_mmEf>
 8003d1c:	e691      	b.n	8003a42 <_Z4loopv+0x1a2>
 8003d1e:	2a4d      	cmp	r2, #77	; 0x4d
 8003d20:	f040 818a 	bne.w	8004038 <_Z4loopv+0x798>
 8003d24:	2b06      	cmp	r3, #6
 8003d26:	f43f ae8c 	beq.w	8003a42 <_Z4loopv+0x1a2>
 8003d2a:	2b0a      	cmp	r3, #10
 8003d2c:	d104      	bne.n	8003d38 <_Z4loopv+0x498>
 8003d2e:	2101      	movs	r1, #1
 8003d30:	488e      	ldr	r0, [pc, #568]	; (8003f6c <_Z4loopv+0x6cc>)
 8003d32:	f000 fa65 	bl	8004200 <_ZN13Simple_output3setEb>
 8003d36:	e684      	b.n	8003a42 <_Z4loopv+0x1a2>
 8003d38:	2b0b      	cmp	r3, #11
 8003d3a:	d101      	bne.n	8003d40 <_Z4loopv+0x4a0>
 8003d3c:	2100      	movs	r1, #0
 8003d3e:	e7f7      	b.n	8003d30 <_Z4loopv+0x490>
 8003d40:	2b11      	cmp	r3, #17
 8003d42:	d103      	bne.n	8003d4c <_Z4loopv+0x4ac>
 8003d44:	2001      	movs	r0, #1
 8003d46:	f7ff fba5 	bl	8003494 <_ZL20do_cmd_stepper_powerb>
 8003d4a:	e67a      	b.n	8003a42 <_Z4loopv+0x1a2>
 8003d4c:	2b12      	cmp	r3, #18
 8003d4e:	d101      	bne.n	8003d54 <_Z4loopv+0x4b4>
 8003d50:	2000      	movs	r0, #0
 8003d52:	e7f8      	b.n	8003d46 <_Z4loopv+0x4a6>
 8003d54:	2b7e      	cmp	r3, #126	; 0x7e
 8003d56:	d102      	bne.n	8003d5e <_Z4loopv+0x4be>
 8003d58:	2101      	movs	r1, #1
 8003d5a:	4885      	ldr	r0, [pc, #532]	; (8003f70 <_Z4loopv+0x6d0>)
 8003d5c:	e7e9      	b.n	8003d32 <_Z4loopv+0x492>
 8003d5e:	2b7f      	cmp	r3, #127	; 0x7f
 8003d60:	d101      	bne.n	8003d66 <_Z4loopv+0x4c6>
 8003d62:	2100      	movs	r1, #0
 8003d64:	e7f9      	b.n	8003d5a <_Z4loopv+0x4ba>
 8003d66:	2b2a      	cmp	r3, #42	; 0x2a
 8003d68:	d14c      	bne.n	8003e04 <_Z4loopv+0x564>
 8003d6a:	ed9d 0a0c 	vldr	s0, [sp, #48]	; 0x30
 8003d6e:	eddf 7a85 	vldr	s15, [pc, #532]	; 8003f84 <_Z4loopv+0x6e4>
 8003d72:	eeb4 0a67 	vcmp.f32	s0, s15
 8003d76:	eef1 fa10 	vmrs	APSR_nzcv, fpscr
 8003d7a:	f43f ae62 	beq.w	8003a42 <_Z4loopv+0x1a2>
 8003d7e:	eddd 8a0b 	vldr	s17, [sp, #44]	; 0x2c
 8003d82:	eef4 8a67 	vcmp.f32	s17, s15
 8003d86:	eef1 fa10 	vmrs	APSR_nzcv, fpscr
 8003d8a:	f43f ae5a 	beq.w	8003a42 <_Z4loopv+0x1a2>
 8003d8e:	f000 fc5b 	bl	8004648 <roundf>
 8003d92:	eeb0 8a40 	vmov.f32	s16, s0
 8003d96:	eeb0 0a68 	vmov.f32	s0, s17
 8003d9a:	f000 fc55 	bl	8004648 <roundf>
 8003d9e:	eefd 7ac0 	vcvt.s32.f32	s15, s0
 8003da2:	eebd 0ac8 	vcvt.s32.f32	s0, s16
 8003da6:	ee17 4a90 	vmov	r4, s15
 8003daa:	ee10 3a10 	vmov	r3, s0
 8003dae:	2b05      	cmp	r3, #5
 8003db0:	f63f ae47 	bhi.w	8003a42 <_Z4loopv+0x1a2>
 8003db4:	e8df f003 	tbb	[pc, r3]
 8003db8:	150f0903 	.word	0x150f0903
 8003dbc:	211b      	.short	0x211b
 8003dbe:	1c21      	adds	r1, r4, #0
 8003dc0:	bf18      	it	ne
 8003dc2:	2101      	movne	r1, #1
 8003dc4:	4869      	ldr	r0, [pc, #420]	; (8003f6c <_Z4loopv+0x6cc>)
 8003dc6:	f000 fa1b 	bl	8004200 <_ZN13Simple_output3setEb>
 8003dca:	1c21      	adds	r1, r4, #0
 8003dcc:	bf18      	it	ne
 8003dce:	2101      	movne	r1, #1
 8003dd0:	4867      	ldr	r0, [pc, #412]	; (8003f70 <_Z4loopv+0x6d0>)
 8003dd2:	f000 fa15 	bl	8004200 <_ZN13Simple_output3setEb>
 8003dd6:	1c21      	adds	r1, r4, #0
 8003dd8:	bf18      	it	ne
 8003dda:	2101      	movne	r1, #1
 8003ddc:	4865      	ldr	r0, [pc, #404]	; (8003f74 <_Z4loopv+0x6d4>)
 8003dde:	f000 fa0f 	bl	8004200 <_ZN13Simple_output3setEb>
 8003de2:	1c21      	adds	r1, r4, #0
 8003de4:	bf18      	it	ne
 8003de6:	2101      	movne	r1, #1
 8003de8:	4863      	ldr	r0, [pc, #396]	; (8003f78 <_Z4loopv+0x6d8>)
 8003dea:	f000 fa09 	bl	8004200 <_ZN13Simple_output3setEb>
 8003dee:	1c21      	adds	r1, r4, #0
 8003df0:	bf18      	it	ne
 8003df2:	2101      	movne	r1, #1
 8003df4:	4861      	ldr	r0, [pc, #388]	; (8003f7c <_Z4loopv+0x6dc>)
 8003df6:	f000 fa03 	bl	8004200 <_ZN13Simple_output3setEb>
 8003dfa:	1c21      	adds	r1, r4, #0
 8003dfc:	bf18      	it	ne
 8003dfe:	2101      	movne	r1, #1
 8003e00:	485f      	ldr	r0, [pc, #380]	; (8003f80 <_Z4loopv+0x6e0>)
 8003e02:	e796      	b.n	8003d32 <_Z4loopv+0x492>
 8003e04:	2bc9      	cmp	r3, #201	; 0xc9
 8003e06:	d14e      	bne.n	8003ea6 <_Z4loopv+0x606>
 8003e08:	eddf ba5e 	vldr	s23, [pc, #376]	; 8003f84 <_Z4loopv+0x6e4>
 8003e0c:	eeb4 ba6b 	vcmp.f32	s22, s23
 8003e10:	eef1 fa10 	vmrs	APSR_nzcv, fpscr
 8003e14:	d004      	beq.n	8003e20 <_Z4loopv+0x580>
 8003e16:	eeb0 0a4b 	vmov.f32	s0, s22
 8003e1a:	484c      	ldr	r0, [pc, #304]	; (8003f4c <_Z4loopv+0x6ac>)
 8003e1c:	f7ff fa76 	bl	800330c <_ZN20AccelStepperExtended18setAcceleration_mmEf>
 8003e20:	eeb4 8a6b 	vcmp.f32	s16, s23
 8003e24:	eef1 fa10 	vmrs	APSR_nzcv, fpscr
 8003e28:	d009      	beq.n	8003e3e <_Z4loopv+0x59e>
 8003e2a:	eeb0 0a48 	vmov.f32	s0, s16
 8003e2e:	4848      	ldr	r0, [pc, #288]	; (8003f50 <_Z4loopv+0x6b0>)
 8003e30:	f7ff fa6c 	bl	800330c <_ZN20AccelStepperExtended18setAcceleration_mmEf>
 8003e34:	eeb0 0a48 	vmov.f32	s0, s16
 8003e38:	4846      	ldr	r0, [pc, #280]	; (8003f54 <_Z4loopv+0x6b4>)
 8003e3a:	f7ff fa67 	bl	800330c <_ZN20AccelStepperExtended18setAcceleration_mmEf>
 8003e3e:	eef4 aa6b 	vcmp.f32	s21, s23
 8003e42:	eef1 fa10 	vmrs	APSR_nzcv, fpscr
 8003e46:	d004      	beq.n	8003e52 <_Z4loopv+0x5b2>
 8003e48:	eeb0 0a6a 	vmov.f32	s0, s21
 8003e4c:	4842      	ldr	r0, [pc, #264]	; (8003f58 <_Z4loopv+0x6b8>)
 8003e4e:	f7ff fa5d 	bl	800330c <_ZN20AccelStepperExtended18setAcceleration_mmEf>
 8003e52:	eeb4 aa6b 	vcmp.f32	s20, s23
 8003e56:	eef1 fa10 	vmrs	APSR_nzcv, fpscr
 8003e5a:	d004      	beq.n	8003e66 <_Z4loopv+0x5c6>
 8003e5c:	eeb0 0a4a 	vmov.f32	s0, s20
 8003e60:	483e      	ldr	r0, [pc, #248]	; (8003f5c <_Z4loopv+0x6bc>)
 8003e62:	f7ff fa53 	bl	800330c <_ZN20AccelStepperExtended18setAcceleration_mmEf>
 8003e66:	eef4 9a6b 	vcmp.f32	s19, s23
 8003e6a:	eef1 fa10 	vmrs	APSR_nzcv, fpscr
 8003e6e:	d004      	beq.n	8003e7a <_Z4loopv+0x5da>
 8003e70:	eeb0 0a69 	vmov.f32	s0, s19
 8003e74:	483a      	ldr	r0, [pc, #232]	; (8003f60 <_Z4loopv+0x6c0>)
 8003e76:	f7ff fa49 	bl	800330c <_ZN20AccelStepperExtended18setAcceleration_mmEf>
 8003e7a:	eeb4 9a6b 	vcmp.f32	s18, s23
 8003e7e:	eef1 fa10 	vmrs	APSR_nzcv, fpscr
 8003e82:	d004      	beq.n	8003e8e <_Z4loopv+0x5ee>
 8003e84:	eeb0 0a49 	vmov.f32	s0, s18
 8003e88:	4836      	ldr	r0, [pc, #216]	; (8003f64 <_Z4loopv+0x6c4>)
 8003e8a:	f7ff fa3f 	bl	800330c <_ZN20AccelStepperExtended18setAcceleration_mmEf>
 8003e8e:	eef4 8a6b 	vcmp.f32	s17, s23
 8003e92:	eef1 fa10 	vmrs	APSR_nzcv, fpscr
 8003e96:	f43f add4 	beq.w	8003a42 <_Z4loopv+0x1a2>
 8003e9a:	eeb0 0a68 	vmov.f32	s0, s17
 8003e9e:	4832      	ldr	r0, [pc, #200]	; (8003f68 <_Z4loopv+0x6c8>)
 8003ea0:	f7ff fa34 	bl	800330c <_ZN20AccelStepperExtended18setAcceleration_mmEf>
 8003ea4:	e5cd      	b.n	8003a42 <_Z4loopv+0x1a2>
 8003ea6:	2bcb      	cmp	r3, #203	; 0xcb
 8003ea8:	d16e      	bne.n	8003f88 <_Z4loopv+0x6e8>
 8003eaa:	eddf ba36 	vldr	s23, [pc, #216]	; 8003f84 <_Z4loopv+0x6e4>
 8003eae:	eeb4 ba6b 	vcmp.f32	s22, s23
 8003eb2:	eef1 fa10 	vmrs	APSR_nzcv, fpscr
 8003eb6:	d004      	beq.n	8003ec2 <_Z4loopv+0x622>
 8003eb8:	eeb0 0a4b 	vmov.f32	s0, s22
 8003ebc:	4823      	ldr	r0, [pc, #140]	; (8003f4c <_Z4loopv+0x6ac>)
 8003ebe:	f7ff fa1e 	bl	80032fe <_ZN20AccelStepperExtended18setMaxSpeed_cap_mmEf>
 8003ec2:	eeb4 8a6b 	vcmp.f32	s16, s23
 8003ec6:	eef1 fa10 	vmrs	APSR_nzcv, fpscr
 8003eca:	d009      	beq.n	8003ee0 <_Z4loopv+0x640>
 8003ecc:	eeb0 0a48 	vmov.f32	s0, s16
 8003ed0:	481f      	ldr	r0, [pc, #124]	; (8003f50 <_Z4loopv+0x6b0>)
 8003ed2:	f7ff fa14 	bl	80032fe <_ZN20AccelStepperExtended18setMaxSpeed_cap_mmEf>
 8003ed6:	eeb0 0a48 	vmov.f32	s0, s16
 8003eda:	481e      	ldr	r0, [pc, #120]	; (8003f54 <_Z4loopv+0x6b4>)
 8003edc:	f7ff fa0f 	bl	80032fe <_ZN20AccelStepperExtended18setMaxSpeed_cap_mmEf>
 8003ee0:	eef4 aa6b 	vcmp.f32	s21, s23
 8003ee4:	eef1 fa10 	vmrs	APSR_nzcv, fpscr
 8003ee8:	d004      	beq.n	8003ef4 <_Z4loopv+0x654>
 8003eea:	eeb0 0a6a 	vmov.f32	s0, s21
 8003eee:	481a      	ldr	r0, [pc, #104]	; (8003f58 <_Z4loopv+0x6b8>)
 8003ef0:	f7ff fa05 	bl	80032fe <_ZN20AccelStepperExtended18setMaxSpeed_cap_mmEf>
 8003ef4:	eeb4 aa6b 	vcmp.f32	s20, s23
 8003ef8:	eef1 fa10 	vmrs	APSR_nzcv, fpscr
 8003efc:	d004      	beq.n	8003f08 <_Z4loopv+0x668>
 8003efe:	eeb0 0a4a 	vmov.f32	s0, s20
 8003f02:	4816      	ldr	r0, [pc, #88]	; (8003f5c <_Z4loopv+0x6bc>)
 8003f04:	f7ff f9fb 	bl	80032fe <_ZN20AccelStepperExtended18setMaxSpeed_cap_mmEf>
 8003f08:	eef4 9a6b 	vcmp.f32	s19, s23
 8003f0c:	eef1 fa10 	vmrs	APSR_nzcv, fpscr
 8003f10:	d004      	beq.n	8003f1c <_Z4loopv+0x67c>
 8003f12:	eeb0 0a69 	vmov.f32	s0, s19
 8003f16:	4812      	ldr	r0, [pc, #72]	; (8003f60 <_Z4loopv+0x6c0>)
 8003f18:	f7ff f9f1 	bl	80032fe <_ZN20AccelStepperExtended18setMaxSpeed_cap_mmEf>
 8003f1c:	eeb4 9a6b 	vcmp.f32	s18, s23
 8003f20:	eef1 fa10 	vmrs	APSR_nzcv, fpscr
 8003f24:	d004      	beq.n	8003f30 <_Z4loopv+0x690>
 8003f26:	eeb0 0a49 	vmov.f32	s0, s18
 8003f2a:	480e      	ldr	r0, [pc, #56]	; (8003f64 <_Z4loopv+0x6c4>)
 8003f2c:	f7ff f9e7 	bl	80032fe <_ZN20AccelStepperExtended18setMaxSpeed_cap_mmEf>
 8003f30:	eef4 8a6b 	vcmp.f32	s17, s23
 8003f34:	eef1 fa10 	vmrs	APSR_nzcv, fpscr
 8003f38:	f43f ad83 	beq.w	8003a42 <_Z4loopv+0x1a2>
 8003f3c:	eeb0 0a68 	vmov.f32	s0, s17
 8003f40:	4809      	ldr	r0, [pc, #36]	; (8003f68 <_Z4loopv+0x6c8>)
 8003f42:	f7ff f9dc 	bl	80032fe <_ZN20AccelStepperExtended18setMaxSpeed_cap_mmEf>
 8003f46:	e57c      	b.n	8003a42 <_Z4loopv+0x1a2>
 8003f48:	408f4000 	.word	0x408f4000
 8003f4c:	200006f8 	.word	0x200006f8
 8003f50:	20000754 	.word	0x20000754
 8003f54:	200007b0 	.word	0x200007b0
 8003f58:	2000080c 	.word	0x2000080c
 8003f5c:	2000069c 	.word	0x2000069c
 8003f60:	20000588 	.word	0x20000588
 8003f64:	200005e4 	.word	0x200005e4
 8003f68:	20000640 	.word	0x20000640
 8003f6c:	20000570 	.word	0x20000570
 8003f70:	20000580 	.word	0x20000580
 8003f74:	20000568 	.word	0x20000568
 8003f78:	20000578 	.word	0x20000578
 8003f7c:	20000558 	.word	0x20000558
 8003f80:	20000560 	.word	0x20000560
 8003f84:	4a800000 	.word	0x4a800000
 8003f88:	2bcc      	cmp	r3, #204	; 0xcc
 8003f8a:	d14e      	bne.n	800402a <_Z4loopv+0x78a>
 8003f8c:	ed5f ba03 	vldr	s23, [pc, #-12]	; 8003f84 <_Z4loopv+0x6e4>
 8003f90:	eeb4 ba6b 	vcmp.f32	s22, s23
 8003f94:	eef1 fa10 	vmrs	APSR_nzcv, fpscr
 8003f98:	d004      	beq.n	8003fa4 <_Z4loopv+0x704>
 8003f9a:	eeb0 0a4b 	vmov.f32	s0, s22
 8003f9e:	4827      	ldr	r0, [pc, #156]	; (800403c <_Z4loopv+0x79c>)
 8003fa0:	f7ff f9b1 	bl	8003306 <_ZN20AccelStepperExtended25setMaxSpeed_multiplier_mmEf>
 8003fa4:	eeb4 8a6b 	vcmp.f32	s16, s23
 8003fa8:	eef1 fa10 	vmrs	APSR_nzcv, fpscr
 8003fac:	d009      	beq.n	8003fc2 <_Z4loopv+0x722>
 8003fae:	eeb0 0a48 	vmov.f32	s0, s16
 8003fb2:	4823      	ldr	r0, [pc, #140]	; (8004040 <_Z4loopv+0x7a0>)
 8003fb4:	f7ff f9a7 	bl	8003306 <_ZN20AccelStepperExtended25setMaxSpeed_multiplier_mmEf>
 8003fb8:	eeb0 0a48 	vmov.f32	s0, s16
 8003fbc:	4821      	ldr	r0, [pc, #132]	; (8004044 <_Z4loopv+0x7a4>)
 8003fbe:	f7ff f9a2 	bl	8003306 <_ZN20AccelStepperExtended25setMaxSpeed_multiplier_mmEf>
 8003fc2:	eef4 aa6b 	vcmp.f32	s21, s23
 8003fc6:	eef1 fa10 	vmrs	APSR_nzcv, fpscr
 8003fca:	d004      	beq.n	8003fd6 <_Z4loopv+0x736>
 8003fcc:	eeb0 0a6a 	vmov.f32	s0, s21
 8003fd0:	481d      	ldr	r0, [pc, #116]	; (8004048 <_Z4loopv+0x7a8>)
 8003fd2:	f7ff f998 	bl	8003306 <_ZN20AccelStepperExtended25setMaxSpeed_multiplier_mmEf>
 8003fd6:	eeb4 aa6b 	vcmp.f32	s20, s23
 8003fda:	eef1 fa10 	vmrs	APSR_nzcv, fpscr
 8003fde:	d004      	beq.n	8003fea <_Z4loopv+0x74a>
 8003fe0:	eeb0 0a4a 	vmov.f32	s0, s20
 8003fe4:	4819      	ldr	r0, [pc, #100]	; (800404c <_Z4loopv+0x7ac>)
 8003fe6:	f7ff f98e 	bl	8003306 <_ZN20AccelStepperExtended25setMaxSpeed_multiplier_mmEf>
 8003fea:	eef4 9a6b 	vcmp.f32	s19, s23
 8003fee:	eef1 fa10 	vmrs	APSR_nzcv, fpscr
 8003ff2:	d004      	beq.n	8003ffe <_Z4loopv+0x75e>
 8003ff4:	eeb0 0a69 	vmov.f32	s0, s19
 8003ff8:	4815      	ldr	r0, [pc, #84]	; (8004050 <_Z4loopv+0x7b0>)
 8003ffa:	f7ff f984 	bl	8003306 <_ZN20AccelStepperExtended25setMaxSpeed_multiplier_mmEf>
 8003ffe:	eeb4 9a6b 	vcmp.f32	s18, s23
 8004002:	eef1 fa10 	vmrs	APSR_nzcv, fpscr
 8004006:	d004      	beq.n	8004012 <_Z4loopv+0x772>
 8004008:	eeb0 0a49 	vmov.f32	s0, s18
 800400c:	4811      	ldr	r0, [pc, #68]	; (8004054 <_Z4loopv+0x7b4>)
 800400e:	f7ff f97a 	bl	8003306 <_ZN20AccelStepperExtended25setMaxSpeed_multiplier_mmEf>
 8004012:	eef4 8a6b 	vcmp.f32	s17, s23
 8004016:	eef1 fa10 	vmrs	APSR_nzcv, fpscr
 800401a:	f43f ad12 	beq.w	8003a42 <_Z4loopv+0x1a2>
 800401e:	eeb0 0a68 	vmov.f32	s0, s17
 8004022:	480d      	ldr	r0, [pc, #52]	; (8004058 <_Z4loopv+0x7b8>)
 8004024:	f7ff f96f 	bl	8003306 <_ZN20AccelStepperExtended25setMaxSpeed_multiplier_mmEf>
 8004028:	e50b      	b.n	8003a42 <_Z4loopv+0x1a2>
 800402a:	f5b3 7f7a 	cmp.w	r3, #1000	; 0x3e8
 800402e:	d103      	bne.n	8004038 <_Z4loopv+0x798>
 8004030:	480a      	ldr	r0, [pc, #40]	; (800405c <_Z4loopv+0x7bc>)
 8004032:	f000 f979 	bl	8004328 <_Z12uart_messagePKc>
 8004036:	e504      	b.n	8003a42 <_Z4loopv+0x1a2>
 8004038:	4809      	ldr	r0, [pc, #36]	; (8004060 <_Z4loopv+0x7c0>)
 800403a:	e7fa      	b.n	8004032 <_Z4loopv+0x792>
 800403c:	200006f8 	.word	0x200006f8
 8004040:	20000754 	.word	0x20000754
 8004044:	200007b0 	.word	0x200007b0
 8004048:	2000080c 	.word	0x2000080c
 800404c:	2000069c 	.word	0x2000069c
 8004050:	20000588 	.word	0x20000588
 8004054:	200005e4 	.word	0x200005e4
 8004058:	20000640 	.word	0x20000640
 800405c:	080049b0 	.word	0x080049b0
 8004060:	080049b5 	.word	0x080049b5

08004064 <_GLOBAL__sub_I_stepperX>:
 8004064:	b508      	push	{r3, lr}
 8004066:	2244      	movs	r2, #68	; 0x44
 8004068:	2145      	movs	r1, #69	; 0x45
 800406a:	482c      	ldr	r0, [pc, #176]	; (800411c <_GLOBAL__sub_I_stepperX+0xb8>)
 800406c:	f7ff f900 	bl	8003270 <_ZN20AccelStepperExtendedC1Eii>
 8004070:	2241      	movs	r2, #65	; 0x41
 8004072:	2142      	movs	r1, #66	; 0x42
 8004074:	482a      	ldr	r0, [pc, #168]	; (8004120 <_GLOBAL__sub_I_stepperX+0xbc>)
 8004076:	f7ff f8fb 	bl	8003270 <_ZN20AccelStepperExtendedC1Eii>
 800407a:	2218      	movs	r2, #24
 800407c:	2119      	movs	r1, #25
 800407e:	4829      	ldr	r0, [pc, #164]	; (8004124 <_GLOBAL__sub_I_stepperX+0xc0>)
 8004080:	f7ff f8f6 	bl	8003270 <_ZN20AccelStepperExtendedC1Eii>
 8004084:	2237      	movs	r2, #55	; 0x37
 8004086:	2114      	movs	r1, #20
 8004088:	4827      	ldr	r0, [pc, #156]	; (8004128 <_GLOBAL__sub_I_stepperX+0xc4>)
 800408a:	f7ff f8f1 	bl	8003270 <_ZN20AccelStepperExtendedC1Eii>
 800408e:	2234      	movs	r2, #52	; 0x34
 8004090:	2135      	movs	r1, #53	; 0x35
 8004092:	4826      	ldr	r0, [pc, #152]	; (800412c <_GLOBAL__sub_I_stepperX+0xc8>)
 8004094:	f7ff f8ec 	bl	8003270 <_ZN20AccelStepperExtendedC1Eii>
 8004098:	2231      	movs	r2, #49	; 0x31
 800409a:	2132      	movs	r1, #50	; 0x32
 800409c:	4824      	ldr	r0, [pc, #144]	; (8004130 <_GLOBAL__sub_I_stepperX+0xcc>)
 800409e:	f7ff f8e7 	bl	8003270 <_ZN20AccelStepperExtendedC1Eii>
 80040a2:	2227      	movs	r2, #39	; 0x27
 80040a4:	2128      	movs	r1, #40	; 0x28
 80040a6:	4823      	ldr	r0, [pc, #140]	; (8004134 <_GLOBAL__sub_I_stepperX+0xd0>)
 80040a8:	f7ff f8e2 	bl	8003270 <_ZN20AccelStepperExtendedC1Eii>
 80040ac:	222b      	movs	r2, #43	; 0x2b
 80040ae:	212c      	movs	r1, #44	; 0x2c
 80040b0:	4821      	ldr	r0, [pc, #132]	; (8004138 <_GLOBAL__sub_I_stepperX+0xd4>)
 80040b2:	f7ff f8dd 	bl	8003270 <_ZN20AccelStepperExtendedC1Eii>
 80040b6:	2126      	movs	r1, #38	; 0x26
 80040b8:	4820      	ldr	r0, [pc, #128]	; (800413c <_GLOBAL__sub_I_stepperX+0xd8>)
 80040ba:	f000 f89d 	bl	80041f8 <_ZN13Simple_outputC1Ei>
 80040be:	213f      	movs	r1, #63	; 0x3f
 80040c0:	481f      	ldr	r0, [pc, #124]	; (8004140 <_GLOBAL__sub_I_stepperX+0xdc>)
 80040c2:	f000 f899 	bl	80041f8 <_ZN13Simple_outputC1Ei>
 80040c6:	213e      	movs	r1, #62	; 0x3e
 80040c8:	481e      	ldr	r0, [pc, #120]	; (8004144 <_GLOBAL__sub_I_stepperX+0xe0>)
 80040ca:	f000 f895 	bl	80041f8 <_ZN13Simple_outputC1Ei>
 80040ce:	213d      	movs	r1, #61	; 0x3d
 80040d0:	481d      	ldr	r0, [pc, #116]	; (8004148 <_GLOBAL__sub_I_stepperX+0xe4>)
 80040d2:	f000 f891 	bl	80041f8 <_ZN13Simple_outputC1Ei>
 80040d6:	213c      	movs	r1, #60	; 0x3c
 80040d8:	481c      	ldr	r0, [pc, #112]	; (800414c <_GLOBAL__sub_I_stepperX+0xe8>)
 80040da:	f000 f88d 	bl	80041f8 <_ZN13Simple_outputC1Ei>
 80040de:	213b      	movs	r1, #59	; 0x3b
 80040e0:	481b      	ldr	r0, [pc, #108]	; (8004150 <_GLOBAL__sub_I_stepperX+0xec>)
 80040e2:	f000 f889 	bl	80041f8 <_ZN13Simple_outputC1Ei>
 80040e6:	213a      	movs	r1, #58	; 0x3a
 80040e8:	481a      	ldr	r0, [pc, #104]	; (8004154 <_GLOBAL__sub_I_stepperX+0xf0>)
 80040ea:	f000 f88d 	bl	8004208 <_ZN14Prelling_inputC1Ei>
 80040ee:	2139      	movs	r1, #57	; 0x39
 80040f0:	4819      	ldr	r0, [pc, #100]	; (8004158 <_GLOBAL__sub_I_stepperX+0xf4>)
 80040f2:	f000 f889 	bl	8004208 <_ZN14Prelling_inputC1Ei>
 80040f6:	2138      	movs	r1, #56	; 0x38
 80040f8:	4818      	ldr	r0, [pc, #96]	; (800415c <_GLOBAL__sub_I_stepperX+0xf8>)
 80040fa:	f000 f885 	bl	8004208 <_ZN14Prelling_inputC1Ei>
 80040fe:	214f      	movs	r1, #79	; 0x4f
 8004100:	4817      	ldr	r0, [pc, #92]	; (8004160 <_GLOBAL__sub_I_stepperX+0xfc>)
 8004102:	f000 f881 	bl	8004208 <_ZN14Prelling_inputC1Ei>
 8004106:	214e      	movs	r1, #78	; 0x4e
 8004108:	4816      	ldr	r0, [pc, #88]	; (8004164 <_GLOBAL__sub_I_stepperX+0x100>)
 800410a:	f000 f87d 	bl	8004208 <_ZN14Prelling_inputC1Ei>
 800410e:	214d      	movs	r1, #77	; 0x4d
 8004110:	4815      	ldr	r0, [pc, #84]	; (8004168 <_GLOBAL__sub_I_stepperX+0x104>)
 8004112:	e8bd 4008 	ldmia.w	sp!, {r3, lr}
 8004116:	f000 b877 	b.w	8004208 <_ZN14Prelling_inputC1Ei>
 800411a:	bf00      	nop
 800411c:	200006f8 	.word	0x200006f8
 8004120:	20000754 	.word	0x20000754
 8004124:	200007b0 	.word	0x200007b0
 8004128:	2000080c 	.word	0x2000080c
 800412c:	2000069c 	.word	0x2000069c
 8004130:	20000588 	.word	0x20000588
 8004134:	200005e4 	.word	0x200005e4
 8004138:	20000640 	.word	0x20000640
 800413c:	20000570 	.word	0x20000570
 8004140:	20000580 	.word	0x20000580
 8004144:	20000568 	.word	0x20000568
 8004148:	20000578 	.word	0x20000578
 800414c:	20000558 	.word	0x20000558
 8004150:	20000560 	.word	0x20000560
 8004154:	20000524 	.word	0x20000524
 8004158:	2000052c 	.word	0x2000052c
 800415c:	20000534 	.word	0x20000534
 8004160:	2000053c 	.word	0x2000053c
 8004164:	20000544 	.word	0x20000544
 8004168:	2000054c 	.word	0x2000054c

0800416c <_Z6microsv>:
 800416c:	4b01      	ldr	r3, [pc, #4]	; (8004174 <_Z6microsv+0x8>)
 800416e:	681b      	ldr	r3, [r3, #0]
 8004170:	6a58      	ldr	r0, [r3, #36]	; 0x24
 8004172:	4770      	bx	lr
 8004174:	20000204 	.word	0x20000204

08004178 <_Z5delayi>:
 8004178:	4a07      	ldr	r2, [pc, #28]	; (8004198 <_Z5delayi+0x20>)
 800417a:	6813      	ldr	r3, [r2, #0]
 800417c:	18c0      	adds	r0, r0, r3
 800417e:	4613      	mov	r3, r2
 8004180:	d306      	bcc.n	8004190 <_Z5delayi+0x18>
 8004182:	681a      	ldr	r2, [r3, #0]
 8004184:	3201      	adds	r2, #1
 8004186:	d006      	beq.n	8004196 <_Z5delayi+0x1e>
 8004188:	681a      	ldr	r2, [r3, #0]
 800418a:	4282      	cmp	r2, r0
 800418c:	d3fc      	bcc.n	8004188 <_Z5delayi+0x10>
 800418e:	e7f8      	b.n	8004182 <_Z5delayi+0xa>
 8004190:	681a      	ldr	r2, [r3, #0]
 8004192:	4282      	cmp	r2, r0
 8004194:	d3fc      	bcc.n	8004190 <_Z5delayi+0x18>
 8004196:	4770      	bx	lr
 8004198:	20000ffc 	.word	0x20000ffc

0800419c <_Z17delayMicrosecondsi>:
 800419c:	4770      	bx	lr
	...

080041a0 <_Z12digitalWriteii>:
 80041a0:	4a07      	ldr	r2, [pc, #28]	; (80041c0 <_Z12digitalWriteii+0x20>)
 80041a2:	2310      	movs	r3, #16
 80041a4:	fb90 f3f3 	sdiv	r3, r0, r3
 80041a8:	f852 2023 	ldr.w	r2, [r2, r3, lsl #2]
 80041ac:	f000 030f 	and.w	r3, r0, #15
 80041b0:	2001      	movs	r0, #1
 80041b2:	4098      	lsls	r0, r3
 80041b4:	b109      	cbz	r1, 80041ba <_Z12digitalWriteii+0x1a>
 80041b6:	6190      	str	r0, [r2, #24]
 80041b8:	4770      	bx	lr
 80041ba:	0400      	lsls	r0, r0, #16
 80041bc:	e7fb      	b.n	80041b6 <_Z12digitalWriteii+0x16>
 80041be:	bf00      	nop
 80041c0:	2000000c 	.word	0x2000000c

080041c4 <_Z11digitalReadi>:
 80041c4:	4a08      	ldr	r2, [pc, #32]	; (80041e8 <_Z11digitalReadi+0x24>)
 80041c6:	2310      	movs	r3, #16
 80041c8:	fb90 f3f3 	sdiv	r3, r0, r3
 80041cc:	f852 3023 	ldr.w	r3, [r2, r3, lsl #2]
 80041d0:	f000 000f 	and.w	r0, r0, #15
 80041d4:	691a      	ldr	r2, [r3, #16]
 80041d6:	2301      	movs	r3, #1
 80041d8:	fa03 f000 	lsl.w	r0, r3, r0
 80041dc:	4210      	tst	r0, r2
 80041de:	bf14      	ite	ne
 80041e0:	4618      	movne	r0, r3
 80041e2:	2000      	moveq	r0, #0
 80041e4:	4770      	bx	lr
 80041e6:	bf00      	nop
 80041e8:	2000000c 	.word	0x2000000c

080041ec <_Z7pinModeii>:
 80041ec:	4770      	bx	lr

080041ee <_Z11gpio_SetPinP12GPIO_TypeDeft>:
 80041ee:	6181      	str	r1, [r0, #24]
 80041f0:	4770      	bx	lr

080041f2 <_Z13gpio_ResetPinP12GPIO_TypeDeft>:
 80041f2:	0409      	lsls	r1, r1, #16
 80041f4:	6181      	str	r1, [r0, #24]
 80041f6:	4770      	bx	lr

080041f8 <_ZN13Simple_outputC1Ei>:
 80041f8:	2200      	movs	r2, #0
 80041fa:	6001      	str	r1, [r0, #0]
 80041fc:	7102      	strb	r2, [r0, #4]
 80041fe:	4770      	bx	lr

08004200 <_ZN13Simple_output3setEb>:
 8004200:	7101      	strb	r1, [r0, #4]
 8004202:	6800      	ldr	r0, [r0, #0]
 8004204:	f7ff bfcc 	b.w	80041a0 <_Z12digitalWriteii>

08004208 <_ZN14Prelling_inputC1Ei>:
 8004208:	2200      	movs	r2, #0
 800420a:	6001      	str	r1, [r0, #0]
 800420c:	6042      	str	r2, [r0, #4]
 800420e:	4770      	bx	lr

08004210 <_ZN14Prelling_input6updateEv>:
 8004210:	b510      	push	{r4, lr}
 8004212:	4604      	mov	r4, r0
 8004214:	6800      	ldr	r0, [r0, #0]
 8004216:	f7ff ffd5 	bl	80041c4 <_Z11digitalReadi>
 800421a:	6863      	ldr	r3, [r4, #4]
 800421c:	b128      	cbz	r0, 800422a <_ZN14Prelling_input6updateEv+0x1a>
 800421e:	3301      	adds	r3, #1
 8004220:	2b0a      	cmp	r3, #10
 8004222:	bfc8      	it	gt
 8004224:	230a      	movgt	r3, #10
 8004226:	6063      	str	r3, [r4, #4]
 8004228:	bd10      	pop	{r4, pc}
 800422a:	3b01      	subs	r3, #1
 800422c:	f113 0f0a 	cmn.w	r3, #10
 8004230:	bfb8      	it	lt
 8004232:	f06f 0309 	mvnlt.w	r3, #9
 8004236:	e7f6      	b.n	8004226 <_ZN14Prelling_input6updateEv+0x16>

08004238 <_ZN14Prelling_input3getEv>:
 8004238:	6840      	ldr	r0, [r0, #4]
 800423a:	2800      	cmp	r0, #0
 800423c:	bfd4      	ite	le
 800423e:	2000      	movle	r0, #0
 8004240:	2001      	movgt	r0, #1
 8004242:	4770      	bx	lr

08004244 <_ZL8read_numPi>:
 8004244:	b570      	push	{r4, r5, r6, lr}
 8004246:	6803      	ldr	r3, [r0, #0]
 8004248:	eddf 6a16 	vldr	s13, [pc, #88]	; 80042a4 <_ZL8read_numPi+0x60>
 800424c:	eddf 7a16 	vldr	s15, [pc, #88]	; 80042a8 <_ZL8read_numPi+0x64>
 8004250:	4d16      	ldr	r5, [pc, #88]	; (80042ac <_ZL8read_numPi+0x68>)
 8004252:	2401      	movs	r4, #1
 8004254:	eeb7 0a00 	vmov.f32	s0, #112	; 0x3f800000  1.0
 8004258:	eeb2 6a04 	vmov.f32	s12, #36	; 0x41200000  10.0
 800425c:	5ce9      	ldrb	r1, [r5, r3]
 800425e:	292e      	cmp	r1, #46	; 0x2e
 8004260:	d105      	bne.n	800426e <_ZL8read_numPi+0x2a>
 8004262:	3301      	adds	r3, #1
 8004264:	2400      	movs	r4, #0
 8004266:	e7f9      	b.n	800425c <_ZL8read_numPi+0x18>
 8004268:	eebf 0a00 	vmov.f32	s0, #240	; 0xbf800000 -1.0
 800426c:	e7f6      	b.n	800425c <_ZL8read_numPi+0x18>
 800426e:	f1a1 0230 	sub.w	r2, r1, #48	; 0x30
 8004272:	b2d6      	uxtb	r6, r2
 8004274:	2e09      	cmp	r6, #9
 8004276:	d80f      	bhi.n	8004298 <_ZL8read_numPi+0x54>
 8004278:	ee07 2a10 	vmov	s14, r2
 800427c:	eeb8 7ac7 	vcvt.f32.s32	s14, s14
 8004280:	b12c      	cbz	r4, 800428e <_ZL8read_numPi+0x4a>
 8004282:	eea7 7a86 	vfma.f32	s14, s15, s12
 8004286:	eef0 7a47 	vmov.f32	s15, s14
 800428a:	3301      	adds	r3, #1
 800428c:	e7e6      	b.n	800425c <_ZL8read_numPi+0x18>
 800428e:	eee6 7a87 	vfma.f32	s15, s13, s14
 8004292:	eec6 6a86 	vdiv.f32	s13, s13, s12
 8004296:	e7f8      	b.n	800428a <_ZL8read_numPi+0x46>
 8004298:	292d      	cmp	r1, #45	; 0x2d
 800429a:	d0e5      	beq.n	8004268 <_ZL8read_numPi+0x24>
 800429c:	6003      	str	r3, [r0, #0]
 800429e:	ee27 0a80 	vmul.f32	s0, s15, s0
 80042a2:	bd70      	pop	{r4, r5, r6, pc}
 80042a4:	3dcccccd 	.word	0x3dcccccd
 80042a8:	00000000 	.word	0x00000000
 80042ac:	20000868 	.word	0x20000868

080042b0 <_Z9uart_initv>:
 80042b0:	4b04      	ldr	r3, [pc, #16]	; (80042c4 <_Z9uart_initv+0x14>)
 80042b2:	4a05      	ldr	r2, [pc, #20]	; (80042c8 <_Z9uart_initv+0x18>)
 80042b4:	601a      	str	r2, [r3, #0]
 80042b6:	4905      	ldr	r1, [pc, #20]	; (80042cc <_Z9uart_initv+0x1c>)
 80042b8:	4805      	ldr	r0, [pc, #20]	; (80042d0 <_Z9uart_initv+0x20>)
 80042ba:	2220      	movs	r2, #32
 80042bc:	605a      	str	r2, [r3, #4]
 80042be:	f7ff b88b 	b.w	80033d8 <_ZN6Serial4initEP20__UART_HandleTypeDef>
 80042c2:	bf00      	nop
 80042c4:	2000096c 	.word	0x2000096c
 80042c8:	2000097c 	.word	0x2000097c
 80042cc:	200002c4 	.word	0x200002c4
 80042d0:	20000304 	.word	0x20000304

080042d4 <_Z22uart_command_availablev>:
 80042d4:	4b01      	ldr	r3, [pc, #4]	; (80042dc <_Z22uart_command_availablev+0x8>)
 80042d6:	68d8      	ldr	r0, [r3, #12]
 80042d8:	4770      	bx	lr
 80042da:	bf00      	nop
 80042dc:	2000096c 	.word	0x2000096c

080042e0 <_Z16uart_command_getv>:
 80042e0:	4b10      	ldr	r3, [pc, #64]	; (8004324 <_Z16uart_command_getv+0x44>)
 80042e2:	68da      	ldr	r2, [r3, #12]
 80042e4:	3a01      	subs	r2, #1
 80042e6:	b570      	push	{r4, r5, r6, lr}
 80042e8:	60da      	str	r2, [r3, #12]
 80042ea:	e9d3 2101 	ldrd	r2, r1, [r3, #4]
 80042ee:	1c4c      	adds	r4, r1, #1
 80042f0:	4606      	mov	r6, r0
 80042f2:	fb94 f0f2 	sdiv	r0, r4, r2
 80042f6:	fb02 4010 	mls	r0, r2, r0, r4
 80042fa:	6098      	str	r0, [r3, #8]
 80042fc:	681b      	ldr	r3, [r3, #0]
 80042fe:	fb91 f4f2 	sdiv	r4, r1, r2
 8004302:	fb02 1414 	mls	r4, r2, r4, r1
 8004306:	2234      	movs	r2, #52	; 0x34
 8004308:	fb02 3404 	mla	r4, r2, r4, r3
 800430c:	cc0f      	ldmia	r4!, {r0, r1, r2, r3}
 800430e:	4635      	mov	r5, r6
 8004310:	c50f      	stmia	r5!, {r0, r1, r2, r3}
 8004312:	cc0f      	ldmia	r4!, {r0, r1, r2, r3}
 8004314:	c50f      	stmia	r5!, {r0, r1, r2, r3}
 8004316:	cc0f      	ldmia	r4!, {r0, r1, r2, r3}
 8004318:	c50f      	stmia	r5!, {r0, r1, r2, r3}
 800431a:	6823      	ldr	r3, [r4, #0]
 800431c:	602b      	str	r3, [r5, #0]
 800431e:	4630      	mov	r0, r6
 8004320:	bd70      	pop	{r4, r5, r6, pc}
 8004322:	bf00      	nop
 8004324:	2000096c 	.word	0x2000096c

08004328 <_Z12uart_messagePKc>:
 8004328:	b538      	push	{r3, r4, r5, lr}
 800432a:	4605      	mov	r5, r0
 800432c:	f7fb ff54 	bl	80001d8 <strlen>
 8004330:	4c05      	ldr	r4, [pc, #20]	; (8004348 <_Z12uart_messagePKc+0x20>)
 8004332:	4629      	mov	r1, r5
 8004334:	b282      	uxth	r2, r0
 8004336:	4620      	mov	r0, r4
 8004338:	f7ff f883 	bl	8003442 <_ZN6Serial8writeBufEPKht>
 800433c:	4620      	mov	r0, r4
 800433e:	210a      	movs	r1, #10
 8004340:	e8bd 4038 	ldmia.w	sp!, {r3, r4, r5, lr}
 8004344:	f7ff b88f 	b.w	8003466 <_ZN6Serial5writeEh>
 8004348:	20000304 	.word	0x20000304

0800434c <_Z9uart_loopv>:
 800434c:	e92d 43f0 	stmdb	sp!, {r4, r5, r6, r7, r8, r9, lr}
 8004350:	ed2d 8b02 	vpush	{d8}
 8004354:	ed9f 8a89 	vldr	s16, [pc, #548]	; 800457c <_Z9uart_loopv+0x230>
 8004358:	b08f      	sub	sp, #60	; 0x3c
 800435a:	4889      	ldr	r0, [pc, #548]	; (8004580 <_Z9uart_loopv+0x234>)
 800435c:	f7ff f84a 	bl	80033f4 <_ZN6Serial9availableEv>
 8004360:	2800      	cmp	r0, #0
 8004362:	f000 8105 	beq.w	8004570 <_Z9uart_loopv+0x224>
 8004366:	f8df 8234 	ldr.w	r8, [pc, #564]	; 800459c <_Z9uart_loopv+0x250>
 800436a:	4885      	ldr	r0, [pc, #532]	; (8004580 <_Z9uart_loopv+0x234>)
 800436c:	4f85      	ldr	r7, [pc, #532]	; (8004584 <_Z9uart_loopv+0x238>)
 800436e:	f7ff f848 	bl	8003402 <_ZN6Serial4readEv>
 8004372:	f8d8 3000 	ldr.w	r3, [r8]
 8004376:	280d      	cmp	r0, #13
 8004378:	f103 0201 	add.w	r2, r3, #1
 800437c:	f8c8 2000 	str.w	r2, [r8]
 8004380:	54f8      	strb	r0, [r7, r3]
 8004382:	d001      	beq.n	8004388 <_Z9uart_loopv+0x3c>
 8004384:	280a      	cmp	r0, #10
 8004386:	d1e8      	bne.n	800435a <_Z9uart_loopv+0xe>
 8004388:	2300      	movs	r3, #0
 800438a:	4e7f      	ldr	r6, [pc, #508]	; (8004588 <_Z9uart_loopv+0x23c>)
 800438c:	9300      	str	r3, [sp, #0]
 800438e:	9b00      	ldr	r3, [sp, #0]
 8004390:	5cfd      	ldrb	r5, [r7, r3]
 8004392:	2d20      	cmp	r5, #32
 8004394:	f103 0301 	add.w	r3, r3, #1
 8004398:	d0fa      	beq.n	8004390 <_Z9uart_loopv+0x44>
 800439a:	9300      	str	r3, [sp, #0]
 800439c:	f1a5 0361 	sub.w	r3, r5, #97	; 0x61
 80043a0:	2b19      	cmp	r3, #25
 80043a2:	bf98      	it	ls
 80043a4:	3d20      	subls	r5, #32
 80043a6:	4668      	mov	r0, sp
 80043a8:	bf98      	it	ls
 80043aa:	b2ed      	uxtbls	r5, r5
 80043ac:	f7ff ff4a 	bl	8004244 <_ZL8read_numPi>
 80043b0:	f000 f94a 	bl	8004648 <roundf>
 80043b4:	eef0 8a48 	vmov.f32	s17, s16
 80043b8:	eef0 5a40 	vmov.f32	s11, s0
 80043bc:	eeb0 5a48 	vmov.f32	s10, s16
 80043c0:	eef0 4a48 	vmov.f32	s9, s16
 80043c4:	eeb0 4a48 	vmov.f32	s8, s16
 80043c8:	eef0 3a48 	vmov.f32	s7, s16
 80043cc:	eeb0 3a48 	vmov.f32	s6, s16
 80043d0:	eef0 2a48 	vmov.f32	s5, s16
 80043d4:	eeb0 2a48 	vmov.f32	s4, s16
 80043d8:	eef0 1a48 	vmov.f32	s3, s16
 80043dc:	eeb0 1a48 	vmov.f32	s2, s16
 80043e0:	eef0 0a48 	vmov.f32	s1, s16
 80043e4:	9a00      	ldr	r2, [sp, #0]
 80043e6:	5cbb      	ldrb	r3, [r7, r2]
 80043e8:	2b20      	cmp	r3, #32
 80043ea:	f102 0201 	add.w	r2, r2, #1
 80043ee:	d0fa      	beq.n	80043e6 <_Z9uart_loopv+0x9a>
 80043f0:	f1a3 0161 	sub.w	r1, r3, #97	; 0x61
 80043f4:	2919      	cmp	r1, #25
 80043f6:	bf9c      	itt	ls
 80043f8:	3b20      	subls	r3, #32
 80043fa:	b2db      	uxtbls	r3, r3
 80043fc:	3b3b      	subs	r3, #59	; 0x3b
 80043fe:	9200      	str	r2, [sp, #0]
 8004400:	2b1f      	cmp	r3, #31
 8004402:	d85a      	bhi.n	80044ba <_Z9uart_loopv+0x16e>
 8004404:	e8df f003 	tbb	[pc, r3]
 8004408:	59595910 	.word	0x59595910
 800440c:	352f5959 	.word	0x352f5959
 8004410:	4129593b 	.word	0x4129593b
 8004414:	59595959 	.word	0x59595959
 8004418:	59595959 	.word	0x59595959
 800441c:	59594d59 	.word	0x59594d59
 8004420:	59595347 	.word	0x59595347
 8004424:	231d1759 	.word	0x231d1759
 8004428:	f04f 0901 	mov.w	r9, #1
 800442c:	5cbb      	ldrb	r3, [r7, r2]
 800442e:	2b20      	cmp	r3, #32
 8004430:	d146      	bne.n	80044c0 <_Z9uart_loopv+0x174>
 8004432:	3201      	adds	r2, #1
 8004434:	e7fa      	b.n	800442c <_Z9uart_loopv+0xe0>
 8004436:	4668      	mov	r0, sp
 8004438:	f7ff ff04 	bl	8004244 <_ZL8read_numPi>
 800443c:	eef0 8a40 	vmov.f32	s17, s0
 8004440:	e7d0      	b.n	80043e4 <_Z9uart_loopv+0x98>
 8004442:	4668      	mov	r0, sp
 8004444:	f7ff fefe 	bl	8004244 <_ZL8read_numPi>
 8004448:	eef0 0a40 	vmov.f32	s1, s0
 800444c:	e7ca      	b.n	80043e4 <_Z9uart_loopv+0x98>
 800444e:	4668      	mov	r0, sp
 8004450:	f7ff fef8 	bl	8004244 <_ZL8read_numPi>
 8004454:	eeb0 1a40 	vmov.f32	s2, s0
 8004458:	e7c4      	b.n	80043e4 <_Z9uart_loopv+0x98>
 800445a:	4668      	mov	r0, sp
 800445c:	f7ff fef2 	bl	8004244 <_ZL8read_numPi>
 8004460:	eef0 1a40 	vmov.f32	s3, s0
 8004464:	e7be      	b.n	80043e4 <_Z9uart_loopv+0x98>
 8004466:	4668      	mov	r0, sp
 8004468:	f7ff feec 	bl	8004244 <_ZL8read_numPi>
 800446c:	eeb0 2a40 	vmov.f32	s4, s0
 8004470:	e7b8      	b.n	80043e4 <_Z9uart_loopv+0x98>
 8004472:	4668      	mov	r0, sp
 8004474:	f7ff fee6 	bl	8004244 <_ZL8read_numPi>
 8004478:	eef0 2a40 	vmov.f32	s5, s0
 800447c:	e7b2      	b.n	80043e4 <_Z9uart_loopv+0x98>
 800447e:	4668      	mov	r0, sp
 8004480:	f7ff fee0 	bl	8004244 <_ZL8read_numPi>
 8004484:	eeb0 3a40 	vmov.f32	s6, s0
 8004488:	e7ac      	b.n	80043e4 <_Z9uart_loopv+0x98>
 800448a:	4668      	mov	r0, sp
 800448c:	f7ff feda 	bl	8004244 <_ZL8read_numPi>
 8004490:	eef0 3a40 	vmov.f32	s7, s0
 8004494:	e7a6      	b.n	80043e4 <_Z9uart_loopv+0x98>
 8004496:	4668      	mov	r0, sp
 8004498:	f7ff fed4 	bl	8004244 <_ZL8read_numPi>
 800449c:	eeb0 4a40 	vmov.f32	s8, s0
 80044a0:	e7a0      	b.n	80043e4 <_Z9uart_loopv+0x98>
 80044a2:	4668      	mov	r0, sp
 80044a4:	f7ff fece 	bl	8004244 <_ZL8read_numPi>
 80044a8:	eef0 4a40 	vmov.f32	s9, s0
 80044ac:	e79a      	b.n	80043e4 <_Z9uart_loopv+0x98>
 80044ae:	4668      	mov	r0, sp
 80044b0:	f7ff fec8 	bl	8004244 <_ZL8read_numPi>
 80044b4:	eeb0 5a40 	vmov.f32	s10, s0
 80044b8:	e794      	b.n	80043e4 <_Z9uart_loopv+0x98>
 80044ba:	f04f 0900 	mov.w	r9, #0
 80044be:	e7b5      	b.n	800442c <_Z9uart_loopv+0xe0>
 80044c0:	f1a5 030a 	sub.w	r3, r5, #10
 80044c4:	b2db      	uxtb	r3, r3
 80044c6:	2b16      	cmp	r3, #22
 80044c8:	9200      	str	r2, [sp, #0]
 80044ca:	d841      	bhi.n	8004550 <_Z9uart_loopv+0x204>
 80044cc:	4a2f      	ldr	r2, [pc, #188]	; (800458c <_Z9uart_loopv+0x240>)
 80044ce:	fa22 f303 	lsr.w	r3, r2, r3
 80044d2:	07db      	lsls	r3, r3, #31
 80044d4:	d43e      	bmi.n	8004554 <_Z9uart_loopv+0x208>
 80044d6:	68f3      	ldr	r3, [r6, #12]
 80044d8:	6871      	ldr	r1, [r6, #4]
 80044da:	428b      	cmp	r3, r1
 80044dc:	da44      	bge.n	8004568 <_Z9uart_loopv+0x21c>
 80044de:	68b4      	ldr	r4, [r6, #8]
 80044e0:	6832      	ldr	r2, [r6, #0]
 80044e2:	f88d 5004 	strb.w	r5, [sp, #4]
 80044e6:	eefd 5ae5 	vcvt.s32.f32	s11, s11
 80044ea:	1c58      	adds	r0, r3, #1
 80044ec:	4423      	add	r3, r4
 80044ee:	ed8d 1a05 	vstr	s2, [sp, #20]
 80044f2:	edcd 1a06 	vstr	s3, [sp, #24]
 80044f6:	ed8d 2a07 	vstr	s4, [sp, #28]
 80044fa:	edcd 2a08 	vstr	s5, [sp, #32]
 80044fe:	ed8d 3a09 	vstr	s6, [sp, #36]	; 0x24
 8004502:	edcd 3a0a 	vstr	s7, [sp, #40]	; 0x28
 8004506:	ed8d 4a0b 	vstr	s8, [sp, #44]	; 0x2c
 800450a:	edcd 4a0c 	vstr	s9, [sp, #48]	; 0x30
 800450e:	ed8d 5a0d 	vstr	s10, [sp, #52]	; 0x34
 8004512:	fb93 f4f1 	sdiv	r4, r3, r1
 8004516:	edcd 5a02 	vstr	s11, [sp, #8]
 800451a:	fb01 3414 	mls	r4, r1, r4, r3
 800451e:	edcd 8a03 	vstr	s17, [sp, #12]
 8004522:	edcd 0a04 	vstr	s1, [sp, #16]
 8004526:	2334      	movs	r3, #52	; 0x34
 8004528:	ad01      	add	r5, sp, #4
 800452a:	60f0      	str	r0, [r6, #12]
 800452c:	fb03 2404 	mla	r4, r3, r4, r2
 8004530:	cd0f      	ldmia	r5!, {r0, r1, r2, r3}
 8004532:	c40f      	stmia	r4!, {r0, r1, r2, r3}
 8004534:	cd0f      	ldmia	r5!, {r0, r1, r2, r3}
 8004536:	c40f      	stmia	r4!, {r0, r1, r2, r3}
 8004538:	cd0f      	ldmia	r5!, {r0, r1, r2, r3}
 800453a:	c40f      	stmia	r4!, {r0, r1, r2, r3}
 800453c:	682b      	ldr	r3, [r5, #0]
 800453e:	6023      	str	r3, [r4, #0]
 8004540:	68f2      	ldr	r2, [r6, #12]
 8004542:	6873      	ldr	r3, [r6, #4]
 8004544:	429a      	cmp	r2, r3
 8004546:	db05      	blt.n	8004554 <_Z9uart_loopv+0x208>
 8004548:	4811      	ldr	r0, [pc, #68]	; (8004590 <_Z9uart_loopv+0x244>)
 800454a:	f7ff feed 	bl	8004328 <_Z12uart_messagePKc>
 800454e:	e001      	b.n	8004554 <_Z9uart_loopv+0x208>
 8004550:	2d3b      	cmp	r5, #59	; 0x3b
 8004552:	d1c0      	bne.n	80044d6 <_Z9uart_loopv+0x18a>
 8004554:	f1b9 0f00 	cmp.w	r9, #0
 8004558:	f47f af19 	bne.w	800438e <_Z9uart_loopv+0x42>
 800455c:	480d      	ldr	r0, [pc, #52]	; (8004594 <_Z9uart_loopv+0x248>)
 800455e:	f7ff fee3 	bl	8004328 <_Z12uart_messagePKc>
 8004562:	f8c8 9000 	str.w	r9, [r8]
 8004566:	e6f8      	b.n	800435a <_Z9uart_loopv+0xe>
 8004568:	480b      	ldr	r0, [pc, #44]	; (8004598 <_Z9uart_loopv+0x24c>)
 800456a:	f7ff fedd 	bl	8004328 <_Z12uart_messagePKc>
 800456e:	e7e7      	b.n	8004540 <_Z9uart_loopv+0x1f4>
 8004570:	b00f      	add	sp, #60	; 0x3c
 8004572:	ecbd 8b02 	vpop	{d8}
 8004576:	e8bd 83f0 	ldmia.w	sp!, {r4, r5, r6, r7, r8, r9, pc}
 800457a:	bf00      	nop
 800457c:	4a800000 	.word	0x4a800000
 8004580:	20000304 	.word	0x20000304
 8004584:	20000868 	.word	0x20000868
 8004588:	2000096c 	.word	0x2000096c
 800458c:	00400009 	.word	0x00400009
 8004590:	080049da 	.word	0x080049da
 8004594:	080049df 	.word	0x080049df
 8004598:	080049d1 	.word	0x080049d1
 800459c:	20000968 	.word	0x20000968

080045a0 <_GLOBAL__sub_I_buf>:
 80045a0:	4b03      	ldr	r3, [pc, #12]	; (80045b0 <_GLOBAL__sub_I_buf+0x10>)
 80045a2:	2200      	movs	r2, #0
 80045a4:	e9c3 2200 	strd	r2, r2, [r3]
 80045a8:	e9c3 2202 	strd	r2, r2, [r3, #8]
 80045ac:	4770      	bx	lr
 80045ae:	bf00      	nop
 80045b0:	2000096c 	.word	0x2000096c

080045b4 <round>:
 80045b4:	b5f8      	push	{r3, r4, r5, r6, r7, lr}
 80045b6:	ec57 6b10 	vmov	r6, r7, d0
 80045ba:	f3c7 500a 	ubfx	r0, r7, #20, #11
 80045be:	f2a0 34ff 	subw	r4, r0, #1023	; 0x3ff
 80045c2:	2c13      	cmp	r4, #19
 80045c4:	463b      	mov	r3, r7
 80045c6:	463d      	mov	r5, r7
 80045c8:	dc17      	bgt.n	80045fa <round+0x46>
 80045ca:	2c00      	cmp	r4, #0
 80045cc:	da09      	bge.n	80045e2 <round+0x2e>
 80045ce:	3401      	adds	r4, #1
 80045d0:	f007 4300 	and.w	r3, r7, #2147483648	; 0x80000000
 80045d4:	d103      	bne.n	80045de <round+0x2a>
 80045d6:	f043 537f 	orr.w	r3, r3, #1069547520	; 0x3fc00000
 80045da:	f443 1340 	orr.w	r3, r3, #3145728	; 0x300000
 80045de:	2100      	movs	r1, #0
 80045e0:	e02c      	b.n	800463c <round+0x88>
 80045e2:	4a18      	ldr	r2, [pc, #96]	; (8004644 <round+0x90>)
 80045e4:	4122      	asrs	r2, r4
 80045e6:	4217      	tst	r7, r2
 80045e8:	d100      	bne.n	80045ec <round+0x38>
 80045ea:	b19e      	cbz	r6, 8004614 <round+0x60>
 80045ec:	f44f 2300 	mov.w	r3, #524288	; 0x80000
 80045f0:	4123      	asrs	r3, r4
 80045f2:	442b      	add	r3, r5
 80045f4:	ea23 0302 	bic.w	r3, r3, r2
 80045f8:	e7f1      	b.n	80045de <round+0x2a>
 80045fa:	2c33      	cmp	r4, #51	; 0x33
 80045fc:	dd0d      	ble.n	800461a <round+0x66>
 80045fe:	f5b4 6f80 	cmp.w	r4, #1024	; 0x400
 8004602:	d107      	bne.n	8004614 <round+0x60>
 8004604:	4630      	mov	r0, r6
 8004606:	4639      	mov	r1, r7
 8004608:	ee10 2a10 	vmov	r2, s0
 800460c:	f7fb fdf2 	bl	80001f4 <__adddf3>
 8004610:	4606      	mov	r6, r0
 8004612:	460f      	mov	r7, r1
 8004614:	ec47 6b10 	vmov	d0, r6, r7
 8004618:	bdf8      	pop	{r3, r4, r5, r6, r7, pc}
 800461a:	f2a0 4213 	subw	r2, r0, #1043	; 0x413
 800461e:	f04f 30ff 	mov.w	r0, #4294967295
 8004622:	40d0      	lsrs	r0, r2
 8004624:	4206      	tst	r6, r0
 8004626:	d0f5      	beq.n	8004614 <round+0x60>
 8004628:	2201      	movs	r2, #1
 800462a:	f1c4 0433 	rsb	r4, r4, #51	; 0x33
 800462e:	fa02 f404 	lsl.w	r4, r2, r4
 8004632:	1931      	adds	r1, r6, r4
 8004634:	bf28      	it	cs
 8004636:	189b      	addcs	r3, r3, r2
 8004638:	ea21 0100 	bic.w	r1, r1, r0
 800463c:	461f      	mov	r7, r3
 800463e:	460e      	mov	r6, r1
 8004640:	e7e8      	b.n	8004614 <round+0x60>
 8004642:	bf00      	nop
 8004644:	000fffff 	.word	0x000fffff

08004648 <roundf>:
 8004648:	ee10 0a10 	vmov	r0, s0
 800464c:	f3c0 53c7 	ubfx	r3, r0, #23, #8
 8004650:	f1a3 027f 	sub.w	r2, r3, #127	; 0x7f
 8004654:	2a16      	cmp	r2, #22
 8004656:	dc15      	bgt.n	8004684 <roundf+0x3c>
 8004658:	2a00      	cmp	r2, #0
 800465a:	da08      	bge.n	800466e <roundf+0x26>
 800465c:	3201      	adds	r2, #1
 800465e:	f000 4300 	and.w	r3, r0, #2147483648	; 0x80000000
 8004662:	d101      	bne.n	8004668 <roundf+0x20>
 8004664:	f043 537e 	orr.w	r3, r3, #1065353216	; 0x3f800000
 8004668:	ee00 3a10 	vmov	s0, r3
 800466c:	4770      	bx	lr
 800466e:	4908      	ldr	r1, [pc, #32]	; (8004690 <roundf+0x48>)
 8004670:	4111      	asrs	r1, r2
 8004672:	4208      	tst	r0, r1
 8004674:	d0fa      	beq.n	800466c <roundf+0x24>
 8004676:	f44f 0380 	mov.w	r3, #4194304	; 0x400000
 800467a:	4113      	asrs	r3, r2
 800467c:	4403      	add	r3, r0
 800467e:	ea23 0301 	bic.w	r3, r3, r1
 8004682:	e7f1      	b.n	8004668 <roundf+0x20>
 8004684:	2a80      	cmp	r2, #128	; 0x80
 8004686:	d1f1      	bne.n	800466c <roundf+0x24>
 8004688:	ee30 0a00 	vadd.f32	s0, s0, s0
 800468c:	4770      	bx	lr
 800468e:	bf00      	nop
 8004690:	007fffff 	.word	0x007fffff

08004694 <sqrt>:
 8004694:	e92d 43f0 	stmdb	sp!, {r4, r5, r6, r7, r8, r9, lr}
 8004698:	ed2d 8b02 	vpush	{d8}
 800469c:	b08b      	sub	sp, #44	; 0x2c
 800469e:	ec55 4b10 	vmov	r4, r5, d0
 80046a2:	f000 f851 	bl	8004748 <__ieee754_sqrt>
 80046a6:	4b26      	ldr	r3, [pc, #152]	; (8004740 <sqrt+0xac>)
 80046a8:	eeb0 8a40 	vmov.f32	s16, s0
 80046ac:	eef0 8a60 	vmov.f32	s17, s1
 80046b0:	f993 6000 	ldrsb.w	r6, [r3]
 80046b4:	1c73      	adds	r3, r6, #1
 80046b6:	d02a      	beq.n	800470e <sqrt+0x7a>
 80046b8:	4622      	mov	r2, r4
 80046ba:	462b      	mov	r3, r5
 80046bc:	4620      	mov	r0, r4
 80046be:	4629      	mov	r1, r5
 80046c0:	f7fc f9e8 	bl	8000a94 <__aeabi_dcmpun>
 80046c4:	4607      	mov	r7, r0
 80046c6:	bb10      	cbnz	r0, 800470e <sqrt+0x7a>
 80046c8:	f04f 0800 	mov.w	r8, #0
 80046cc:	f04f 0900 	mov.w	r9, #0
 80046d0:	4642      	mov	r2, r8
 80046d2:	464b      	mov	r3, r9
 80046d4:	4620      	mov	r0, r4
 80046d6:	4629      	mov	r1, r5
 80046d8:	f7fc f9b4 	bl	8000a44 <__aeabi_dcmplt>
 80046dc:	b1b8      	cbz	r0, 800470e <sqrt+0x7a>
 80046de:	2301      	movs	r3, #1
 80046e0:	9300      	str	r3, [sp, #0]
 80046e2:	4b18      	ldr	r3, [pc, #96]	; (8004744 <sqrt+0xb0>)
 80046e4:	9301      	str	r3, [sp, #4]
 80046e6:	9708      	str	r7, [sp, #32]
 80046e8:	e9cd 4504 	strd	r4, r5, [sp, #16]
 80046ec:	e9cd 4502 	strd	r4, r5, [sp, #8]
 80046f0:	b9b6      	cbnz	r6, 8004720 <sqrt+0x8c>
 80046f2:	e9cd 8906 	strd	r8, r9, [sp, #24]
 80046f6:	4668      	mov	r0, sp
 80046f8:	f000 f8d6 	bl	80048a8 <matherr>
 80046fc:	b1d0      	cbz	r0, 8004734 <sqrt+0xa0>
 80046fe:	9b08      	ldr	r3, [sp, #32]
 8004700:	b11b      	cbz	r3, 800470a <sqrt+0x76>
 8004702:	f000 f8d3 	bl	80048ac <__errno>
 8004706:	9b08      	ldr	r3, [sp, #32]
 8004708:	6003      	str	r3, [r0, #0]
 800470a:	ed9d 8b06 	vldr	d8, [sp, #24]
 800470e:	eeb0 0a48 	vmov.f32	s0, s16
 8004712:	eef0 0a68 	vmov.f32	s1, s17
 8004716:	b00b      	add	sp, #44	; 0x2c
 8004718:	ecbd 8b02 	vpop	{d8}
 800471c:	e8bd 83f0 	ldmia.w	sp!, {r4, r5, r6, r7, r8, r9, pc}
 8004720:	4642      	mov	r2, r8
 8004722:	464b      	mov	r3, r9
 8004724:	4640      	mov	r0, r8
 8004726:	4649      	mov	r1, r9
 8004728:	f7fc f844 	bl	80007b4 <__aeabi_ddiv>
 800472c:	2e02      	cmp	r6, #2
 800472e:	e9cd 0106 	strd	r0, r1, [sp, #24]
 8004732:	d1e0      	bne.n	80046f6 <sqrt+0x62>
 8004734:	f000 f8ba 	bl	80048ac <__errno>
 8004738:	2321      	movs	r3, #33	; 0x21
 800473a:	6003      	str	r3, [r0, #0]
 800473c:	e7df      	b.n	80046fe <sqrt+0x6a>
 800473e:	bf00      	nop
 8004740:	2000002c 	.word	0x2000002c
 8004744:	080049e2 	.word	0x080049e2

08004748 <__ieee754_sqrt>:
 8004748:	e92d 41f0 	stmdb	sp!, {r4, r5, r6, r7, r8, lr}
 800474c:	4955      	ldr	r1, [pc, #340]	; (80048a4 <__ieee754_sqrt+0x15c>)
 800474e:	ec55 4b10 	vmov	r4, r5, d0
 8004752:	43a9      	bics	r1, r5
 8004754:	462b      	mov	r3, r5
 8004756:	462a      	mov	r2, r5
 8004758:	d112      	bne.n	8004780 <__ieee754_sqrt+0x38>
 800475a:	ee10 2a10 	vmov	r2, s0
 800475e:	ee10 0a10 	vmov	r0, s0
 8004762:	4629      	mov	r1, r5
 8004764:	f7fb fefc 	bl	8000560 <__aeabi_dmul>
 8004768:	4602      	mov	r2, r0
 800476a:	460b      	mov	r3, r1
 800476c:	4620      	mov	r0, r4
 800476e:	4629      	mov	r1, r5
 8004770:	f7fb fd40 	bl	80001f4 <__adddf3>
 8004774:	4604      	mov	r4, r0
 8004776:	460d      	mov	r5, r1
 8004778:	ec45 4b10 	vmov	d0, r4, r5
 800477c:	e8bd 81f0 	ldmia.w	sp!, {r4, r5, r6, r7, r8, pc}
 8004780:	2d00      	cmp	r5, #0
 8004782:	ee10 0a10 	vmov	r0, s0
 8004786:	4621      	mov	r1, r4
 8004788:	dc0f      	bgt.n	80047aa <__ieee754_sqrt+0x62>
 800478a:	f025 4600 	bic.w	r6, r5, #2147483648	; 0x80000000
 800478e:	4330      	orrs	r0, r6
 8004790:	d0f2      	beq.n	8004778 <__ieee754_sqrt+0x30>
 8004792:	b155      	cbz	r5, 80047aa <__ieee754_sqrt+0x62>
 8004794:	ee10 2a10 	vmov	r2, s0
 8004798:	4620      	mov	r0, r4
 800479a:	4629      	mov	r1, r5
 800479c:	f7fb fd28 	bl	80001f0 <__aeabi_dsub>
 80047a0:	4602      	mov	r2, r0
 80047a2:	460b      	mov	r3, r1
 80047a4:	f7fc f806 	bl	80007b4 <__aeabi_ddiv>
 80047a8:	e7e4      	b.n	8004774 <__ieee754_sqrt+0x2c>
 80047aa:	151b      	asrs	r3, r3, #20
 80047ac:	d073      	beq.n	8004896 <__ieee754_sqrt+0x14e>
 80047ae:	f2a3 33ff 	subw	r3, r3, #1023	; 0x3ff
 80047b2:	07dd      	lsls	r5, r3, #31
 80047b4:	f3c2 0213 	ubfx	r2, r2, #0, #20
 80047b8:	bf48      	it	mi
 80047ba:	0fc8      	lsrmi	r0, r1, #31
 80047bc:	f442 1280 	orr.w	r2, r2, #1048576	; 0x100000
 80047c0:	bf44      	itt	mi
 80047c2:	0049      	lslmi	r1, r1, #1
 80047c4:	eb00 0242 	addmi.w	r2, r0, r2, lsl #1
 80047c8:	2500      	movs	r5, #0
 80047ca:	1058      	asrs	r0, r3, #1
 80047cc:	0fcb      	lsrs	r3, r1, #31
 80047ce:	eb03 0242 	add.w	r2, r3, r2, lsl #1
 80047d2:	0049      	lsls	r1, r1, #1
 80047d4:	2316      	movs	r3, #22
 80047d6:	462c      	mov	r4, r5
 80047d8:	f44f 1600 	mov.w	r6, #2097152	; 0x200000
 80047dc:	19a7      	adds	r7, r4, r6
 80047de:	4297      	cmp	r7, r2
 80047e0:	bfde      	ittt	le
 80047e2:	19bc      	addle	r4, r7, r6
 80047e4:	1bd2      	suble	r2, r2, r7
 80047e6:	19ad      	addle	r5, r5, r6
 80047e8:	0fcf      	lsrs	r7, r1, #31
 80047ea:	3b01      	subs	r3, #1
 80047ec:	eb07 0242 	add.w	r2, r7, r2, lsl #1
 80047f0:	ea4f 0141 	mov.w	r1, r1, lsl #1
 80047f4:	ea4f 0656 	mov.w	r6, r6, lsr #1
 80047f8:	d1f0      	bne.n	80047dc <__ieee754_sqrt+0x94>
 80047fa:	f04f 0c20 	mov.w	ip, #32
 80047fe:	469e      	mov	lr, r3
 8004800:	f04f 4600 	mov.w	r6, #2147483648	; 0x80000000
 8004804:	42a2      	cmp	r2, r4
 8004806:	eb06 070e 	add.w	r7, r6, lr
 800480a:	dc02      	bgt.n	8004812 <__ieee754_sqrt+0xca>
 800480c:	d112      	bne.n	8004834 <__ieee754_sqrt+0xec>
 800480e:	428f      	cmp	r7, r1
 8004810:	d810      	bhi.n	8004834 <__ieee754_sqrt+0xec>
 8004812:	2f00      	cmp	r7, #0
 8004814:	eb07 0e06 	add.w	lr, r7, r6
 8004818:	da42      	bge.n	80048a0 <__ieee754_sqrt+0x158>
 800481a:	f1be 0f00 	cmp.w	lr, #0
 800481e:	db3f      	blt.n	80048a0 <__ieee754_sqrt+0x158>
 8004820:	f104 0801 	add.w	r8, r4, #1
 8004824:	1b12      	subs	r2, r2, r4
 8004826:	428f      	cmp	r7, r1
 8004828:	bf88      	it	hi
 800482a:	f102 32ff 	addhi.w	r2, r2, #4294967295
 800482e:	1bc9      	subs	r1, r1, r7
 8004830:	4433      	add	r3, r6
 8004832:	4644      	mov	r4, r8
 8004834:	0052      	lsls	r2, r2, #1
 8004836:	f1bc 0c01 	subs.w	ip, ip, #1
 800483a:	eb02 72d1 	add.w	r2, r2, r1, lsr #31
 800483e:	ea4f 0656 	mov.w	r6, r6, lsr #1
 8004842:	ea4f 0141 	mov.w	r1, r1, lsl #1
 8004846:	d1dd      	bne.n	8004804 <__ieee754_sqrt+0xbc>
 8004848:	430a      	orrs	r2, r1
 800484a:	d006      	beq.n	800485a <__ieee754_sqrt+0x112>
 800484c:	1c5c      	adds	r4, r3, #1
 800484e:	bf13      	iteet	ne
 8004850:	3301      	addne	r3, #1
 8004852:	3501      	addeq	r5, #1
 8004854:	4663      	moveq	r3, ip
 8004856:	f023 0301 	bicne.w	r3, r3, #1
 800485a:	106a      	asrs	r2, r5, #1
 800485c:	085b      	lsrs	r3, r3, #1
 800485e:	07e9      	lsls	r1, r5, #31
 8004860:	f102 527f 	add.w	r2, r2, #1069547520	; 0x3fc00000
 8004864:	f502 1200 	add.w	r2, r2, #2097152	; 0x200000
 8004868:	bf48      	it	mi
 800486a:	f043 4300 	orrmi.w	r3, r3, #2147483648	; 0x80000000
 800486e:	eb02 5500 	add.w	r5, r2, r0, lsl #20
 8004872:	461c      	mov	r4, r3
 8004874:	e780      	b.n	8004778 <__ieee754_sqrt+0x30>
 8004876:	0aca      	lsrs	r2, r1, #11
 8004878:	3815      	subs	r0, #21
 800487a:	0549      	lsls	r1, r1, #21
 800487c:	2a00      	cmp	r2, #0
 800487e:	d0fa      	beq.n	8004876 <__ieee754_sqrt+0x12e>
 8004880:	02d6      	lsls	r6, r2, #11
 8004882:	d50a      	bpl.n	800489a <__ieee754_sqrt+0x152>
 8004884:	f1c3 0420 	rsb	r4, r3, #32
 8004888:	fa21 f404 	lsr.w	r4, r1, r4
 800488c:	1e5d      	subs	r5, r3, #1
 800488e:	4099      	lsls	r1, r3
 8004890:	4322      	orrs	r2, r4
 8004892:	1b43      	subs	r3, r0, r5
 8004894:	e78b      	b.n	80047ae <__ieee754_sqrt+0x66>
 8004896:	4618      	mov	r0, r3
 8004898:	e7f0      	b.n	800487c <__ieee754_sqrt+0x134>
 800489a:	0052      	lsls	r2, r2, #1
 800489c:	3301      	adds	r3, #1
 800489e:	e7ef      	b.n	8004880 <__ieee754_sqrt+0x138>
 80048a0:	46a0      	mov	r8, r4
 80048a2:	e7bf      	b.n	8004824 <__ieee754_sqrt+0xdc>
 80048a4:	7ff00000 	.word	0x7ff00000

080048a8 <matherr>:
 80048a8:	2000      	movs	r0, #0
 80048aa:	4770      	bx	lr

080048ac <__errno>:
 80048ac:	4b01      	ldr	r3, [pc, #4]	; (80048b4 <__errno+0x8>)
 80048ae:	6818      	ldr	r0, [r3, #0]
 80048b0:	4770      	bx	lr
 80048b2:	bf00      	nop
 80048b4:	20000030 	.word	0x20000030

080048b8 <__libc_init_array>:
 80048b8:	b570      	push	{r4, r5, r6, lr}
 80048ba:	4e0d      	ldr	r6, [pc, #52]	; (80048f0 <__libc_init_array+0x38>)
 80048bc:	4c0d      	ldr	r4, [pc, #52]	; (80048f4 <__libc_init_array+0x3c>)
 80048be:	1ba4      	subs	r4, r4, r6
 80048c0:	10a4      	asrs	r4, r4, #2
 80048c2:	2500      	movs	r5, #0
 80048c4:	42a5      	cmp	r5, r4
 80048c6:	d109      	bne.n	80048dc <__libc_init_array+0x24>
 80048c8:	4e0b      	ldr	r6, [pc, #44]	; (80048f8 <__libc_init_array+0x40>)
 80048ca:	4c0c      	ldr	r4, [pc, #48]	; (80048fc <__libc_init_array+0x44>)
 80048cc:	f000 f820 	bl	8004910 <_init>
 80048d0:	1ba4      	subs	r4, r4, r6
 80048d2:	10a4      	asrs	r4, r4, #2
 80048d4:	2500      	movs	r5, #0
 80048d6:	42a5      	cmp	r5, r4
 80048d8:	d105      	bne.n	80048e6 <__libc_init_array+0x2e>
 80048da:	bd70      	pop	{r4, r5, r6, pc}
 80048dc:	f856 3025 	ldr.w	r3, [r6, r5, lsl #2]
 80048e0:	4798      	blx	r3
 80048e2:	3501      	adds	r5, #1
 80048e4:	e7ee      	b.n	80048c4 <__libc_init_array+0xc>
 80048e6:	f856 3025 	ldr.w	r3, [r6, r5, lsl #2]
 80048ea:	4798      	blx	r3
 80048ec:	3501      	adds	r5, #1
 80048ee:	e7f2      	b.n	80048d6 <__libc_init_array+0x1e>
 80048f0:	080049f0 	.word	0x080049f0
 80048f4:	080049f0 	.word	0x080049f0
 80048f8:	080049f0 	.word	0x080049f0
 80048fc:	08004a00 	.word	0x08004a00

08004900 <memset>:
 8004900:	4402      	add	r2, r0
 8004902:	4603      	mov	r3, r0
 8004904:	4293      	cmp	r3, r2
 8004906:	d100      	bne.n	800490a <memset+0xa>
 8004908:	4770      	bx	lr
 800490a:	f803 1b01 	strb.w	r1, [r3], #1
 800490e:	e7f9      	b.n	8004904 <memset+0x4>

08004910 <_init>:
 8004910:	b5f8      	push	{r3, r4, r5, r6, r7, lr}
 8004912:	bf00      	nop
 8004914:	bcf8      	pop	{r3, r4, r5, r6, r7}
 8004916:	bc08      	pop	{r3}
 8004918:	469e      	mov	lr, r3
 800491a:	4770      	bx	lr

0800491c <_fini>:
 800491c:	b5f8      	push	{r3, r4, r5, r6, r7, lr}
 800491e:	bf00      	nop
 8004920:	bcf8      	pop	{r3, r4, r5, r6, r7}
 8004922:	bc08      	pop	{r3}
 8004924:	469e      	mov	lr, r3
 8004926:	4770      	bx	lr
